###############################################################################
#
# IAR ELF Linker V8.22.2.15995/W32 for ARM                13/Sep/2018  15:23:51
# Copyright 2007-2018 IAR Systems AB.
#
#    Output file  =  
#        E:\work\work\gagent\working\ST\I-CUBE-GIZWITS\Projects\B-L475E-IOT01\Applications\Cloud\Gizwits\EWARM\B-L475E-IOT01\Exe\B-L475E-IOT01.out
#    Map file     =  
#        E:\work\work\gagent\working\ST\I-CUBE-GIZWITS\Projects\B-L475E-IOT01\Applications\Cloud\Gizwits\EWARM\B-L475E-IOT01\List\B-L475E-IOT01.map
#    Command line =  
#        -f C:\Users\Alex\AppData\Local\Temp\EW696A.tmp
#        (E:\work\work\gagent\working\ST\I-CUBE-GIZWITS\Projects\B-L475E-IOT01\Applications\Cloud\Gizwits\EWARM\B-L475E-IOT01\Obj\cmsis_os.o
#        E:\work\work\gagent\working\ST\I-CUBE-GIZWITS\Projects\B-L475E-IOT01\Applications\Cloud\Gizwits\EWARM\B-L475E-IOT01\Obj\croutine.o
#        E:\work\work\gagent\working\ST\I-CUBE-GIZWITS\Projects\B-L475E-IOT01\Applications\Cloud\Gizwits\EWARM\B-L475E-IOT01\Obj\es_wifi.o
#        E:\work\work\gagent\working\ST\I-CUBE-GIZWITS\Projects\B-L475E-IOT01\Applications\Cloud\Gizwits\EWARM\B-L475E-IOT01\Obj\es_wifi_io.o
#        E:\work\work\gagent\working\ST\I-CUBE-GIZWITS\Projects\B-L475E-IOT01\Applications\Cloud\Gizwits\EWARM\B-L475E-IOT01\Obj\event_groups.o
#        E:\work\work\gagent\working\ST\I-CUBE-GIZWITS\Projects\B-L475E-IOT01\Applications\Cloud\Gizwits\EWARM\B-L475E-IOT01\Obj\flash_l4.o
#        E:\work\work\gagent\working\ST\I-CUBE-GIZWITS\Middlewares\Third_Party\Gagent\Gagent_IAR.a
#        E:\work\work\gagent\working\ST\I-CUBE-GIZWITS\Projects\B-L475E-IOT01\Applications\Cloud\Gizwits\EWARM\B-L475E-IOT01\Obj\gagent_iot_test_basic_connectivity.o
#        E:\work\work\gagent\working\ST\I-CUBE-GIZWITS\Projects\B-L475E-IOT01\Applications\Cloud\Gizwits\EWARM\B-L475E-IOT01\Obj\heap.o
#        E:\work\work\gagent\working\ST\I-CUBE-GIZWITS\Projects\B-L475E-IOT01\Applications\Cloud\Gizwits\EWARM\B-L475E-IOT01\Obj\heap_4.o
#        E:\work\work\gagent\working\ST\I-CUBE-GIZWITS\Projects\B-L475E-IOT01\Applications\Cloud\Gizwits\EWARM\B-L475E-IOT01\Obj\hts221.o
#        E:\work\work\gagent\working\ST\I-CUBE-GIZWITS\Projects\B-L475E-IOT01\Applications\Cloud\Gizwits\EWARM\B-L475E-IOT01\Obj\iofdev.o
#        E:\work\work\gagent\working\ST\I-CUBE-GIZWITS\Projects\B-L475E-IOT01\Applications\Cloud\Gizwits\EWARM\B-L475E-IOT01\Obj\ioffile.o
#        E:\work\work\gagent\working\ST\I-CUBE-GIZWITS\Projects\B-L475E-IOT01\Applications\Cloud\Gizwits\EWARM\B-L475E-IOT01\Obj\iofipc.o
#        E:\work\work\gagent\working\ST\I-CUBE-GIZWITS\Projects\B-L475E-IOT01\Applications\Cloud\Gizwits\EWARM\B-L475E-IOT01\Obj\iofnet.o
#        E:\work\work\gagent\working\ST\I-CUBE-GIZWITS\Projects\B-L475E-IOT01\Applications\Cloud\Gizwits\EWARM\B-L475E-IOT01\Obj\iofpthread.o
#        E:\work\work\gagent\working\ST\I-CUBE-GIZWITS\Projects\B-L475E-IOT01\Applications\Cloud\Gizwits\EWARM\B-L475E-IOT01\Obj\iofserial.o
#        E:\work\work\gagent\working\ST\I-CUBE-GIZWITS\Projects\B-L475E-IOT01\Applications\Cloud\Gizwits\EWARM\B-L475E-IOT01\Obj\iofsocket.o
#        E:\work\work\gagent\working\ST\I-CUBE-GIZWITS\Projects\B-L475E-IOT01\Applications\Cloud\Gizwits\EWARM\B-L475E-IOT01\Obj\iofstring.o
#        E:\work\work\gagent\working\ST\I-CUBE-GIZWITS\Projects\B-L475E-IOT01\Applications\Cloud\Gizwits\EWARM\B-L475E-IOT01\Obj\ioftime.o
#        E:\work\work\gagent\working\ST\I-CUBE-GIZWITS\Projects\B-L475E-IOT01\Applications\Cloud\Gizwits\EWARM\B-L475E-IOT01\Obj\iot_flash_config.o
#        E:\work\work\gagent\working\ST\I-CUBE-GIZWITS\Projects\B-L475E-IOT01\Applications\Cloud\Gizwits\EWARM\B-L475E-IOT01\Obj\lis3mdl.o
#        E:\work\work\gagent\working\ST\I-CUBE-GIZWITS\Projects\B-L475E-IOT01\Applications\Cloud\Gizwits\EWARM\B-L475E-IOT01\Obj\list.o
#        E:\work\work\gagent\working\ST\I-CUBE-GIZWITS\Projects\B-L475E-IOT01\Applications\Cloud\Gizwits\EWARM\B-L475E-IOT01\Obj\lps22hb.o
#        E:\work\work\gagent\working\ST\I-CUBE-GIZWITS\Projects\B-L475E-IOT01\Applications\Cloud\Gizwits\EWARM\B-L475E-IOT01\Obj\lsm6dsl.o
#        E:\work\work\gagent\working\ST\I-CUBE-GIZWITS\Projects\B-L475E-IOT01\Applications\Cloud\Gizwits\EWARM\B-L475E-IOT01\Obj\main.o
#        E:\work\work\gagent\working\ST\I-CUBE-GIZWITS\Projects\B-L475E-IOT01\Applications\Cloud\Gizwits\EWARM\B-L475E-IOT01\Obj\network.o
#        E:\work\work\gagent\working\ST\I-CUBE-GIZWITS\Projects\B-L475E-IOT01\Applications\Cloud\Gizwits\EWARM\B-L475E-IOT01\Obj\port.o
#        E:\work\work\gagent\working\ST\I-CUBE-GIZWITS\Projects\B-L475E-IOT01\Applications\Cloud\Gizwits\EWARM\B-L475E-IOT01\Obj\portasm.o
#        E:\work\work\gagent\working\ST\I-CUBE-GIZWITS\Projects\B-L475E-IOT01\Applications\Cloud\Gizwits\EWARM\B-L475E-IOT01\Obj\queue.o
#        E:\work\work\gagent\working\ST\I-CUBE-GIZWITS\Projects\B-L475E-IOT01\Applications\Cloud\Gizwits\EWARM\B-L475E-IOT01\Obj\semaph.o
#        E:\work\work\gagent\working\ST\I-CUBE-GIZWITS\Projects\B-L475E-IOT01\Applications\Cloud\Gizwits\EWARM\B-L475E-IOT01\Obj\sensors_data.o
#        E:\work\work\gagent\working\ST\I-CUBE-GIZWITS\Projects\B-L475E-IOT01\Applications\Cloud\Gizwits\EWARM\B-L475E-IOT01\Obj\startup_stm32l475xx.o
#        E:\work\work\gagent\working\ST\I-CUBE-GIZWITS\Projects\B-L475E-IOT01\Applications\Cloud\Gizwits\EWARM\B-L475E-IOT01\Obj\stm32l475e_iot01.o
#        E:\work\work\gagent\working\ST\I-CUBE-GIZWITS\Projects\B-L475E-IOT01\Applications\Cloud\Gizwits\EWARM\B-L475E-IOT01\Obj\stm32l475e_iot01_accelero.o
#        E:\work\work\gagent\working\ST\I-CUBE-GIZWITS\Projects\B-L475E-IOT01\Applications\Cloud\Gizwits\EWARM\B-L475E-IOT01\Obj\stm32l475e_iot01_gyro.o
#        E:\work\work\gagent\working\ST\I-CUBE-GIZWITS\Projects\B-L475E-IOT01\Applications\Cloud\Gizwits\EWARM\B-L475E-IOT01\Obj\stm32l475e_iot01_hsensor.o
#        E:\work\work\gagent\working\ST\I-CUBE-GIZWITS\Projects\B-L475E-IOT01\Applications\Cloud\Gizwits\EWARM\B-L475E-IOT01\Obj\stm32l475e_iot01_magneto.o
#        E:\work\work\gagent\working\ST\I-CUBE-GIZWITS\Projects\B-L475E-IOT01\Applications\Cloud\Gizwits\EWARM\B-L475E-IOT01\Obj\stm32l475e_iot01_psensor.o
#        E:\work\work\gagent\working\ST\I-CUBE-GIZWITS\Projects\B-L475E-IOT01\Applications\Cloud\Gizwits\EWARM\B-L475E-IOT01\Obj\stm32l475e_iot01_tsensor.o
#        E:\work\work\gagent\working\ST\I-CUBE-GIZWITS\Projects\B-L475E-IOT01\Applications\Cloud\Gizwits\EWARM\B-L475E-IOT01\Obj\stm32l4xx_hal.o
#        E:\work\work\gagent\working\ST\I-CUBE-GIZWITS\Projects\B-L475E-IOT01\Applications\Cloud\Gizwits\EWARM\B-L475E-IOT01\Obj\stm32l4xx_hal_cortex.o
#        E:\work\work\gagent\working\ST\I-CUBE-GIZWITS\Projects\B-L475E-IOT01\Applications\Cloud\Gizwits\EWARM\B-L475E-IOT01\Obj\stm32l4xx_hal_dma.o
#        E:\work\work\gagent\working\ST\I-CUBE-GIZWITS\Projects\B-L475E-IOT01\Applications\Cloud\Gizwits\EWARM\B-L475E-IOT01\Obj\stm32l4xx_hal_flash.o
#        E:\work\work\gagent\working\ST\I-CUBE-GIZWITS\Projects\B-L475E-IOT01\Applications\Cloud\Gizwits\EWARM\B-L475E-IOT01\Obj\stm32l4xx_hal_flash_ex.o
#        E:\work\work\gagent\working\ST\I-CUBE-GIZWITS\Projects\B-L475E-IOT01\Applications\Cloud\Gizwits\EWARM\B-L475E-IOT01\Obj\stm32l4xx_hal_flash_ramfunc.o
#        E:\work\work\gagent\working\ST\I-CUBE-GIZWITS\Projects\B-L475E-IOT01\Applications\Cloud\Gizwits\EWARM\B-L475E-IOT01\Obj\stm32l4xx_hal_gpio.o
#        E:\work\work\gagent\working\ST\I-CUBE-GIZWITS\Projects\B-L475E-IOT01\Applications\Cloud\Gizwits\EWARM\B-L475E-IOT01\Obj\stm32l4xx_hal_i2c.o
#        E:\work\work\gagent\working\ST\I-CUBE-GIZWITS\Projects\B-L475E-IOT01\Applications\Cloud\Gizwits\EWARM\B-L475E-IOT01\Obj\stm32l4xx_hal_i2c_ex.o
#        E:\work\work\gagent\working\ST\I-CUBE-GIZWITS\Projects\B-L475E-IOT01\Applications\Cloud\Gizwits\EWARM\B-L475E-IOT01\Obj\stm32l4xx_hal_iwdg.o
#        E:\work\work\gagent\working\ST\I-CUBE-GIZWITS\Projects\B-L475E-IOT01\Applications\Cloud\Gizwits\EWARM\B-L475E-IOT01\Obj\stm32l4xx_hal_msp.o
#        E:\work\work\gagent\working\ST\I-CUBE-GIZWITS\Projects\B-L475E-IOT01\Applications\Cloud\Gizwits\EWARM\B-L475E-IOT01\Obj\stm32l4xx_hal_pwr.o
#        E:\work\work\gagent\working\ST\I-CUBE-GIZWITS\Projects\B-L475E-IOT01\Applications\Cloud\Gizwits\EWARM\B-L475E-IOT01\Obj\stm32l4xx_hal_pwr_ex.o
#        E:\work\work\gagent\working\ST\I-CUBE-GIZWITS\Projects\B-L475E-IOT01\Applications\Cloud\Gizwits\EWARM\B-L475E-IOT01\Obj\stm32l4xx_hal_qspi.o
#        E:\work\work\gagent\working\ST\I-CUBE-GIZWITS\Projects\B-L475E-IOT01\Applications\Cloud\Gizwits\EWARM\B-L475E-IOT01\Obj\stm32l4xx_hal_rcc.o
#        E:\work\work\gagent\working\ST\I-CUBE-GIZWITS\Projects\B-L475E-IOT01\Applications\Cloud\Gizwits\EWARM\B-L475E-IOT01\Obj\stm32l4xx_hal_rcc_ex.o
#        E:\work\work\gagent\working\ST\I-CUBE-GIZWITS\Projects\B-L475E-IOT01\Applications\Cloud\Gizwits\EWARM\B-L475E-IOT01\Obj\stm32l4xx_hal_rng.o
#        E:\work\work\gagent\working\ST\I-CUBE-GIZWITS\Projects\B-L475E-IOT01\Applications\Cloud\Gizwits\EWARM\B-L475E-IOT01\Obj\stm32l4xx_hal_rtc.o
#        E:\work\work\gagent\working\ST\I-CUBE-GIZWITS\Projects\B-L475E-IOT01\Applications\Cloud\Gizwits\EWARM\B-L475E-IOT01\Obj\stm32l4xx_hal_rtc_ex.o
#        E:\work\work\gagent\working\ST\I-CUBE-GIZWITS\Projects\B-L475E-IOT01\Applications\Cloud\Gizwits\EWARM\B-L475E-IOT01\Obj\stm32l4xx_hal_spi.o
#        E:\work\work\gagent\working\ST\I-CUBE-GIZWITS\Projects\B-L475E-IOT01\Applications\Cloud\Gizwits\EWARM\B-L475E-IOT01\Obj\stm32l4xx_hal_spi_ex.o
#        E:\work\work\gagent\working\ST\I-CUBE-GIZWITS\Projects\B-L475E-IOT01\Applications\Cloud\Gizwits\EWARM\B-L475E-IOT01\Obj\stm32l4xx_hal_tim.o
#        E:\work\work\gagent\working\ST\I-CUBE-GIZWITS\Projects\B-L475E-IOT01\Applications\Cloud\Gizwits\EWARM\B-L475E-IOT01\Obj\stm32l4xx_hal_tim_ex.o
#        E:\work\work\gagent\working\ST\I-CUBE-GIZWITS\Projects\B-L475E-IOT01\Applications\Cloud\Gizwits\EWARM\B-L475E-IOT01\Obj\stm32l4xx_hal_timebase_tim.o
#        E:\work\work\gagent\working\ST\I-CUBE-GIZWITS\Projects\B-L475E-IOT01\Applications\Cloud\Gizwits\EWARM\B-L475E-IOT01\Obj\stm32l4xx_hal_uart.o
#        E:\work\work\gagent\working\ST\I-CUBE-GIZWITS\Projects\B-L475E-IOT01\Applications\Cloud\Gizwits\EWARM\B-L475E-IOT01\Obj\stm32l4xx_hal_uart_ex.o
#        E:\work\work\gagent\working\ST\I-CUBE-GIZWITS\Projects\B-L475E-IOT01\Applications\Cloud\Gizwits\EWARM\B-L475E-IOT01\Obj\stm32l4xx_it.o
#        E:\work\work\gagent\working\ST\I-CUBE-GIZWITS\Projects\B-L475E-IOT01\Applications\Cloud\Gizwits\EWARM\B-L475E-IOT01\Obj\system_stm32l4xx.o
#        E:\work\work\gagent\working\ST\I-CUBE-GIZWITS\Projects\B-L475E-IOT01\Applications\Cloud\Gizwits\EWARM\B-L475E-IOT01\Obj\tasks.o
#        E:\work\work\gagent\working\ST\I-CUBE-GIZWITS\Projects\B-L475E-IOT01\Applications\Cloud\Gizwits\EWARM\B-L475E-IOT01\Obj\timedate.o
#        E:\work\work\gagent\working\ST\I-CUBE-GIZWITS\Projects\B-L475E-IOT01\Applications\Cloud\Gizwits\EWARM\B-L475E-IOT01\Obj\timers.o
#        E:\work\work\gagent\working\ST\I-CUBE-GIZWITS\Projects\B-L475E-IOT01\Applications\Cloud\Gizwits\EWARM\B-L475E-IOT01\Obj\vl53l0x_api.o
#        E:\work\work\gagent\working\ST\I-CUBE-GIZWITS\Projects\B-L475E-IOT01\Applications\Cloud\Gizwits\EWARM\B-L475E-IOT01\Obj\vl53l0x_api_calibration.o
#        E:\work\work\gagent\working\ST\I-CUBE-GIZWITS\Projects\B-L475E-IOT01\Applications\Cloud\Gizwits\EWARM\B-L475E-IOT01\Obj\vl53l0x_api_core.o
#        E:\work\work\gagent\working\ST\I-CUBE-GIZWITS\Projects\B-L475E-IOT01\Applications\Cloud\Gizwits\EWARM\B-L475E-IOT01\Obj\vl53l0x_api_ranging.o
#        E:\work\work\gagent\working\ST\I-CUBE-GIZWITS\Projects\B-L475E-IOT01\Applications\Cloud\Gizwits\EWARM\B-L475E-IOT01\Obj\vl53l0x_api_strings.o
#        E:\work\work\gagent\working\ST\I-CUBE-GIZWITS\Projects\B-L475E-IOT01\Applications\Cloud\Gizwits\EWARM\B-L475E-IOT01\Obj\vl53l0x_platform.o
#        E:\work\work\gagent\working\ST\I-CUBE-GIZWITS\Projects\B-L475E-IOT01\Applications\Cloud\Gizwits\EWARM\B-L475E-IOT01\Obj\vl53l0x_platform_log.o
#        E:\work\work\gagent\working\ST\I-CUBE-GIZWITS\Projects\B-L475E-IOT01\Applications\Cloud\Gizwits\EWARM\B-L475E-IOT01\Obj\vl53l0x_proximity.o
#        E:\work\work\gagent\working\ST\I-CUBE-GIZWITS\Projects\B-L475E-IOT01\Applications\Cloud\Gizwits\EWARM\B-L475E-IOT01\Obj\wifi.o
#        --redirect _Printf=_PrintfFull --redirect _Scanf=_ScanfFull -o
#        E:\work\work\gagent\working\ST\I-CUBE-GIZWITS\Projects\B-L475E-IOT01\Applications\Cloud\Gizwits\EWARM\B-L475E-IOT01\Exe\B-L475E-IOT01.out
#        --map
#        E:\work\work\gagent\working\ST\I-CUBE-GIZWITS\Projects\B-L475E-IOT01\Applications\Cloud\Gizwits\EWARM\B-L475E-IOT01\List\B-L475E-IOT01.map
#        --config
#        E:\work\work\gagent\working\ST\I-CUBE-GIZWITS\Projects\B-L475E-IOT01\Applications\Cloud\Gizwits\EWARM/stm32l475xx_flash.icf
#        --semihosting --entry __iar_program_start --vfe --text_out locale)
#
###############################################################################

*******************************************************************************
*** RUNTIME MODEL ATTRIBUTES
***

CppFlavor       = *
__Heap_Handler  = NoFree
__SystemLibrary = DLib
__dlib_version  = 6


*******************************************************************************
*** HEAP SELECTION
***

The no free heap was selected because no calls to memory
deallocation functions were found in the application.


*******************************************************************************
*** PLACEMENT SUMMARY
***

"A1":  place at 0x08000000 { ro section .intvec };
"P1":  place in [from 0x08000000 to 0x08063fff] |
                [from 0x08066000 to 0x0807ffff] { ro };
define block CSTACK with size = 8K, alignment = 8 { };
define block HEAP with size = 3840, alignment = 8 { };
"P2":  place in [from 0x20000000 to 0x20017fff] {
          block CSTACK, rw, block HEAP };
"P3":  place in [from 0x08064000 to 0x08065fff] { ro section UNINIT_FIXED_LOC };
initialize by copy { rw };

No sections matched the following patterns:

  ro section firewall_section  in "A0"


  Section            Kind        Address     Size  Object
  -------            ----        -------     ----  ------
"A1":                                       0x188
  .intvec            ro code  0x08000000    0x188  startup_stm32l475xx.o [1]
                            - 0x08000188    0x188

"P1":                                     0x29417
  .text              ro code  0x08000188   0x1a24  gserver.o [3]
  .text              ro code  0x08001bac    0xc1c  productinfo.o [3]
  .text              ro code  0x080027c8     0x28  printf.o [4]
  .text              ro code  0x080027f0     0x4a  strcmp.o [6]
  .text              ro code  0x0800283a     0x26  xencoding_8859_1.o [4]
  .text              ro code  0x08002860   0x10a8  gagent.o [3]
  .text              ro code  0x08003908     0x4c  strcpy.o [6]
  .text              ro code  0x08003954      0x6  ABImemclr4.o [6]
  .text              ro code  0x0800395a     0x1e  xsscin.o [4]
  .text              ro code  0x08003978     0x36  strlen.o [6]
  .text              ro code  0x080039ae      0xa  xsprout.o [4]
  .text              ro code  0x080039b8    0x954  aes.o [3]
  .text              ro code  0x0800430c    0x278  heap_4.o [1]
  .text              ro code  0x08004584     0x66  ABImemset.o [6]
  .rodata            const    0x080045ea      0x2  stm32l475e_iot01.o [1]
  .text              ro code  0x080045ec    0x512  gatutilcode.o [3]
  .rodata            const    0x08004afe      0x2  stm32l475e_iot01.o [1]
  .text              ro code  0x08004b00     0xa6  ABImemcpy.o [6]
  .rodata            const    0x08004ba6      0x2  stm32l475e_iot01.o [1]
  .text              ro code  0x08004ba8    0x178  iar_Stoulx.o [4]
  .text              ro code  0x08004d20     0x40  sprintf.o [4]
  .text              ro code  0x08004d60   0x1504  httpgat.o [3]
  .text              ro code  0x08006264    0x448  timer_subsystem.o [3]
  .text              ro code  0x080066ac    0x624  gdns.o [3]
  .text              ro code  0x08006cd0    0xfd8  gatm2m.o [3]
  .text              ro code  0x08007ca8    0x232  iofipc.o [1]
  .rodata            const    0x08007eda      0x2  stm32l475e_iot01.o [1]
  .text              ro code  0x08007edc    0x668  localcomm.o [3]
  .text              ro code  0x08008544    0x64c  authorization.o [3]
  .text              ro code  0x08008b90    0x6ec  gatnet.o [3]
  .text              ro code  0x0800927c    0x918  gagent_md5.o [3]
  .text              ro code  0x08009b94     0x2c  lanvirtual.o [3]
  .text              ro code  0x08009bc0    0x6c8  nwk_manage.o [3]
  .text              ro code  0x0800a288    0x284  env.o [3]
  .text              ro code  0x0800a50c    0x418  iofnet.o [1]
  .text              ro code  0x0800a924    0x2dc  ioftime.o [1]
  .text              ro code  0x0800ac00     0xb0  rand.o [4]
  .text              ro code  0x0800acb0    0xf96  xprintffull.o [4]
  .rodata            const    0x0800bc46      0x2  stm32l475e_iot01.o [1]
  .text              ro code  0x0800bc48     0xd4  iofdev.o [1]
  .text              ro code  0x0800bd1c    0x4f4  iofsocket.o [1]
  .text              ro code  0x0800c210    0xb30  mqttlib.o [3]
  .text              ro code  0x0800cd40    0xc54  tcp.o [3]
  .text              ro code  0x0800d994    0xff4  otawan.o [3]
  .text              ro code  0x0800e988    0x47c  gagent_iot_test_basic_connectivity.o [1]
  .text              ro code  0x0800ee04    0x990  mqttgat.o [3]
  .text              ro code  0x0800f794    0x5c4  local.o [3]
  .text              ro code  0x0800fd58    0x118  iofpthread.o [1]
  .text              ro code  0x0800fe70     0x32  ABImemset48.o [6]
  .text              ro code  0x0800fea2    0xc14  aesdata.o [3]
  .rodata            const    0x08010ab6      0x2  stm32l475e_iot01.o [1]
  .text              ro code  0x08010ab8    0xde0  tasks.o [1]
  .text              ro code  0x08011898     0x30  strstr.o [4]
  .text              ro code  0x080118c8     0x14  isspace.o [4]
  .text              ro code  0x080118dc     0x14  tolower.o [4]
  .text              ro code  0x080118f0     0x58  memchr.o [6]
  .text              ro code  0x08011948     0x28  errno.o [4]
  .text              ro code  0x08011970     0x5c  gatlist.o [3]
  .text              ro code  0x080119cc     0x28  strncmp.o [4]
  .text              ro code  0x080119f4    0x29c  dp.o [3]
  .text              ro code  0x08011c90    0x644  cmsis_os.o [1]
  .text              ro code  0x080122d4    0x9b0  queue.o [1]
  .text              ro code  0x08012c84     0xd0  semaph.o [1]
  .text              ro code  0x08012d54    0x470  localprotocol.o [3]
  .text              ro code  0x080131c4    0x93c  localio.o [3]
  .text              ro code  0x08013b00     0x68  memcmp.o [6]
  .text              ro code  0x08013b68    0x244  ioffile.o [1]
  .text              ro code  0x08013dac    0x24c  wifi.o [1]
  .text              ro code  0x08013ff8      0xc  stm32l4xx_hal.o [1]
  .text              ro code  0x08014004    0x4d0  timers.o [1]
  .text              ro code  0x080144d4    0x1d4  iot_flash_config.o [1]
  .text              ro code  0x080146a8    0xd60  es_wifi.o [1]
  .text              ro code  0x08015408    0x108  xlocale_c.o [4]
  .text              ro code  0x08015510     0x16  strchr.o [6]
  .rodata            const    0x08015526      0x2  mqttlib.o [3]
  .text              ro code  0x08015528     0x40  xfail_s.o [4]
  .text              ro code  0x08015568      0xa  xmbcurmax.o [4]
  .text              ro code  0x08015574    0x22e  I64DivMod.o [6]
  .text              ro code  0x080157a4    0x1a2  DblMul.o [5]
  .text              ro code  0x08015948     0x70  frexp.o [5]
  .text              ro code  0x080159b8     0x2e  DblCmpLe.o [5]
  .text              ro code  0x080159e8     0x2e  DblCmpGe.o [5]
  .text              ro code  0x08015a18    0x13a  ldexp.o [5]
  .text              ro code  0x08015b54     0x3a  DblToS32.o [5]
  .text              ro code  0x08015b90     0x22  S32ToDbl.o [5]
  .text              ro code  0x08015bb4     0xe2  DblSub.o [5]
  .text              ro code  0x08015c98    0x246  DblDiv.o [5]
  .text              ro code  0x08015ee0     0x28  DblToU32.o [5]
  .text              ro code  0x08015f08     0x1a  U32ToDbl.o [5]
  .text              ro code  0x08015f24    0x124  stm32l4xx_hal_cortex.o [1]
  .text              ro code  0x08016048    0x6e8  es_wifi_io.o [1]
  .text              ro code  0x08016730     0x70  strncpy.o [6]
  .text              ro code  0x080167a0     0x86  iar_Stolx.o [4]
  .text              ro code  0x08016826     0x70  stm32l4xx_hal_iwdg.o [1]
  .text              ro code  0x08016898    0x3fc  main.o [1]
  .text              ro code  0x08016c94    0x498  stm32l475e_iot01.o [1]
  .text              ro code  0x0801712c    0x37c  flash_l4.o [1]
  .text              ro code  0x080174a8    0x298  network.o [1]
  .text              ro code  0x08017740     0x20  stm32l4xx_hal.o [1]
  .text              ro code  0x08017760    0x378  timedate.o [1]
  .text              ro code  0x08017ad8     0x9a  list.o [1]
  .text              ro code  0x08017b74    0x258  port.o [1]
  .text              ro code  0x08017dcc      0x4  tp_nothreads.o [4]
  .text              ro code  0x08017dd0    0x200  iofserial.o [1]
  .text              ro code  0x08017fd0      0xc  getchar.o [4]
  .text              ro code  0x08017fdc     0x48  strtok.o [4]
  .text              ro code  0x08018024      0x6  abort.o [4]
  .text              ro code  0x0801802c      0x2  I64DivZer.o [6]
  .text              ro code  0x08018030    0x178  DblAdd.o [5]
  .text              ro code  0x080181a8    0x278  stm32l4xx_hal_gpio.o [1]
  .text              ro code  0x08018420    0xeba  stm32l4xx_hal_spi.o [1]
  .text              ro code  0x080192dc     0x18  stm32l4xx_hal.o [1]
  .text              ro code  0x080192f4     0x4a  stm32l4xx_hal_rng.o [1]
  .text              ro code  0x08019340    0x1a8  sensors_data.o [1]
  .text              ro code  0x080194e8    0xa4c  stm32l4xx_hal_rcc.o [1]
  .text              ro code  0x08019f34    0x778  stm32l4xx_hal_rcc_ex.o [1]
  .text              ro code  0x0801a6ac     0xa8  stm32l4xx_hal_pwr_ex.o [1]
  .text              ro code  0x0801a754    0xc6e  stm32l4xx_hal_uart.o [1]
  .text              ro code  0x0801b3c4    0x3d0  stm32l4xx_hal_rtc.o [1]
  .text              ro code  0x0801b794    0x872  stm32l4xx_hal_i2c.o [1]
  .text              ro code  0x0801c008     0x64  stm32l4xx_hal_i2c_ex.o [1]
  .text              ro code  0x0801c06c    0x31c  stm32l4xx_hal_flash.o [1]
  .text              ro code  0x0801c388    0x880  stm32l4xx_hal_flash_ex.o [1]
  .text              ro code  0x0801cc08     0x28  sscanf.o [4]
  CODE               ro code  0x0801cc30     0xa8  portasm.o [1]
  .text              ro code  0x0801ccd8     0x22  strspn.o [4]
  .text              ro code  0x0801ccfa     0x22  strcspn.o [4]
  .text              ro code  0x0801cd1c     0x14  exit.o [7]
  .text              ro code  0x0801cd30      0x2  stm32l4xx_hal_spi.o [1]
  .text              ro code  0x0801cd34     0x58  stm32l4xx_hal_dma.o [1]
  .text              ro code  0x0801cd8c      0x2  stm32l4xx_hal_spi.o [1]
  .text              ro code  0x0801cd8e      0x2  stm32l4xx_hal_spi.o [1]
  .text              ro code  0x0801cd90     0xb8  stm32l4xx_hal_timebase_tim.o [1]
  .text              ro code  0x0801ce48     0x4c  stm32l4xx_hal_msp.o [1]
  .text              ro code  0x0801ce94     0x98  stm32l475e_iot01_accelero.o [1]
  .text              ro code  0x0801cf2c     0x40  stm32l475e_iot01_hsensor.o [1]
  .text              ro code  0x0801cf6c     0x38  stm32l475e_iot01_tsensor.o [1]
  .text              ro code  0x0801cfa4    0x550  simulatorcomm.o [3]
  .text              ro code  0x0801d4f4      0x2  stm32l4xx_hal_uart.o [1]
  .text              ro code  0x0801d4f6      0x2  stm32l4xx_hal_uart_ex.o [1]
  .text              ro code  0x0801d4f8      0x2  stm32l4xx_hal_uart.o [1]
  .text              ro code  0x0801d4fa      0x2  stm32l4xx_hal_i2c.o [1]
  .text              ro code  0x0801d4fc    0xee8  xscanffull.o [4]
  .text              ro code  0x0801e3e4    0x2be  stm32l4xx_hal_tim.o [1]
  .text              ro code  0x0801e6a4     0x10  stm32l4xx_hal.o [1]
  .text              ro code  0x0801e6b4     0x3c  wctob.o [4]
  .text              ro code  0x0801e6f0     0x9c  iar_Stollx.o [4]
  .text              ro code  0x0801e78c    0x1b8  iar_Stoullx.o [4]
  .rodata            const    0x0801e944     0x7c  gagent_iot_test_basic_connectivity.o [1]
  .text              ro code  0x0801e9c0    0x598  strto64.o [5]
  .text              ro code  0x0801ef58     0x14  isalpha.o [4]
  .text              ro code  0x0801ef6c     0x68  DblToFlt.o [5]
  .text              ro code  0x0801efd4      0x2  stm32l4xx_hal_tim.o [1]
  .text              ro code  0x0801efd6      0x2  stm32l4xx_hal_tim.o [1]
  .text              ro code  0x0801efd8      0x2  stm32l4xx_hal_tim.o [1]
  .text              ro code  0x0801efda      0x2  stm32l4xx_hal_tim_ex.o [1]
  .text              ro code  0x0801efdc      0x2  stm32l4xx_hal_tim.o [1]
  .text              ro code  0x0801efde      0x2  stm32l4xx_hal_tim_ex.o [1]
  .text              ro code  0x0801efe0    0x122  iar_Stopfx.o [4]
  .text              ro code  0x0801f104    0x1c8  iar_Stoflt.o [4]
  .text              ro code  0x0801f2cc    0x21c  iar_Stoxflt.o [4]
  .text              ro code  0x0801f4e8    0x264  hts221.o [1]
  .text              ro code  0x0801f74c    0x1f2  lz77_init.o [6]
  .text              ro code  0x0801f940    0x190  lsm6dsl.o [1]
  .rodata            const    0x0801fad0     0x80  es_wifi.o [1]
  .rodata            const    0x0801fb50     0x80  gagent.o [3]
  .rodata            const    0x0801fbd0     0x70  gagent.o [3]
  .rodata            const    0x0801fc40     0x70  timer_subsystem.o [3]
  .text              ro code  0x0801fcb0     0x6c  system_stm32l4xx.o [1]
  .rodata            const    0x0801fd1c     0x68  timedate.o [1]
  .rodata            const    0x0801fd84     0x68  simulatorcomm.o [3]
  .rodata            const    0x0801fdec     0x68  httpgat.o [3]
  .rodata            const    0x0801fe54     0x68  httpgat.o [3]
  .rodata            const    0x0801febc     0x68  httpgat.o [3]
  .rodata            const    0x0801ff24     0x64  gagent.o [3]
  .text              ro code  0x0801ff88     0x64  stm32l4xx_it.o [1]
  .rodata            const    0x0801ffec     0x60  iofsocket.o [1]
  .rodata            const    0x0802004c     0x60  iofsocket.o [1]
  .rodata            const    0x080200ac     0x60  network.o [1]
  .rodata            const    0x0802010c     0x60  gserver.o [3]
  .rodata            const    0x0802016c     0x60  otawan.o [3]
  .rodata            const    0x080201cc     0x5c  ioffile.o [1]
  .rodata            const    0x08020228     0x5c  iofsocket.o [1]
  .rodata            const    0x08020284     0x5c  gagent.o [3]
  .rodata            const    0x080202e0     0x5c  timer_subsystem.o [3]
  .rodata            const    0x0802033c     0x5c  timer_subsystem.o [3]
  .rodata            const    0x08020398     0x5c  otawan.o [3]
  .rodata            const    0x080203f4     0x5c  mqttlib.o [3]
  .rodata            const    0x08020450     0x58  ioftime.o [1]
  .rodata            const    0x080204a8     0x58  ioftime.o [1]
  .rodata            const    0x08020500     0x58  ioftime.o [1]
  .rodata            const    0x08020558     0x58  simulatorcomm.o [3]
  .rodata            const    0x080205b0     0x58  mqttgat.o [3]
  .rodata            const    0x08020608     0x58  gserver.o [3]
  .rodata            const    0x08020660     0x58  httpgat.o [3]
  .rodata            const    0x080206b8     0x54  ioffile.o [1]
  .rodata            const    0x0802070c     0x54  ioftime.o [1]
  .rodata            const    0x08020760     0x54  ioftime.o [1]
  .rodata            const    0x080207b4     0x54  tcp.o [3]
  .rodata            const    0x08020808     0x54  simulatorcomm.o [3]
  .rodata            const    0x0802085c     0x54  simulatorcomm.o [3]
  .rodata            const    0x080208b0     0x50  gserver.o [3]
  .rodata            const    0x08020900     0x50  gatm2m.o [3]
  .rodata            const    0x08020950     0x50  otawan.o [3]
  .rodata            const    0x080209a0     0x4c  gagent_iot_test_basic_connectivity.o [1]
  .rodata            const    0x080209ec     0x4c  gagent.o [3]
  .rodata            const    0x08020a38     0x4c  gagent.o [3]
  .rodata            const    0x08020a84     0x4c  localio.o [3]
  .rodata            const    0x08020ad0     0x4c  gserver.o [3]
  .rodata            const    0x08020b1c     0x4c  httpgat.o [3]
  .rodata            const    0x08020b68     0x48  gagent.o [3]
  .rodata            const    0x08020bb0     0x48  productinfo.o [3]
  .rodata            const    0x08020bf8     0x48  localio.o [3]
  .rodata            const    0x08020c40     0x48  tcp.o [3]
  .rodata            const    0x08020c88     0x48  gdns.o [3]
  .rodata            const    0x08020cd0     0x48  gserver.o [3]
  .rodata            const    0x08020d18     0x44  gagent.o [3]
  .rodata            const    0x08020d5c     0x44  gserver.o [3]
  .rodata            const    0x08020da0     0x44  httpgat.o [3]
  .rodata            const    0x08020de4     0x44  httpgat.o [3]
  .rodata            const    0x08020e28     0x44  otawan.o [3]
  .rodata            const    0x08020e6c     0x40  flash_l4.o [1]
  .rodata            const    0x08020eac     0x40  iot_flash_config.o [1]
  .rodata            const    0x08020eec     0x40  gagent.o [3]
  .rodata            const    0x08020f2c     0x40  productinfo.o [3]
  .rodata            const    0x08020f6c     0x40  productinfo.o [3]
  .rodata            const    0x08020fac     0x40  gatnet.o [3]
  .rodata            const    0x08020fec     0x40  localio.o [3]
  .rodata            const    0x0802102c     0x40  mqttgat.o [3]
  .rodata            const    0x0802106c     0x40  gserver.o [3]
  .rodata            const    0x080210ac     0x40  gserver.o [3]
  .rodata            const    0x080210ec     0x40  gserver.o [3]
  .rodata            const    0x0802112c     0x40  httpgat.o [3]
  .rodata            const    0x0802116c     0x40  gatm2m.o [3]
  .text              ro code  0x080211ac     0x40  zero_init3.o [6]
  .rodata            const    0x080211ec     0x3c  flash_l4.o [1]
  .rodata            const    0x08021228     0x3c  network.o [1]
  .rodata            const    0x08021264     0x3c  local.o [3]
  .rodata            const    0x080212a0     0x3c  gagent.o [3]
  .rodata            const    0x080212dc     0x3c  gagent.o [3]
  .rodata            const    0x08021318     0x3c  gagent.o [3]
  .rodata            const    0x08021354     0x3c  gatnet.o [3]
  .rodata            const    0x08021390     0x3c  localio.o [3]
  .rodata            const    0x080213cc     0x3c  localio.o [3]
  .rodata            const    0x08021408     0x3c  localio.o [3]
  .rodata            const    0x08021444     0x3c  simulatorcomm.o [3]
  .rodata            const    0x08021480     0x3c  simulatorcomm.o [3]
  .rodata            const    0x080214bc     0x3c  simulatorcomm.o [3]
  .rodata            const    0x080214f8     0x3c  authorization.o [3]
  .rodata            const    0x08021534     0x3c  authorization.o [3]
  .rodata            const    0x08021570     0x3c  localcomm.o [3]
  .rodata            const    0x080215ac     0x3c  localprotocol.o [3]
  .rodata            const    0x080215e8     0x3c  gserver.o [3]
  .rodata            const    0x08021624     0x3c  gserver.o [3]
  .rodata            const    0x08021660     0x3c  gserver.o [3]
  .rodata            const    0x0802169c     0x3c  gatm2m.o [3]
  .rodata            const    0x080216d8     0x3c  gatm2m.o [3]
  .rodata            const    0x08021714     0x3c  otawan.o [3]
  .rodata            const    0x08021750     0x3c  otawan.o [3]
  .rodata            const    0x0802178c     0x38  flash_l4.o [1]
  .rodata            const    0x080217c4     0x38  ioffile.o [1]
  .rodata            const    0x080217fc     0x38  iofipc.o [1]
  .rodata            const    0x08021834     0x38  iofserial.o [1]
  .rodata            const    0x0802186c     0x38  local.o [3]
  .rodata            const    0x080218a4     0x38  local.o [3]
  .rodata            const    0x080218dc     0x38  gagent.o [3]
  .rodata            const    0x08021914     0x38  gagent.o [3]
  .rodata            const    0x0802194c     0x38  gagent.o [3]
  .rodata            const    0x08021984     0x38  gagent.o [3]
  .rodata            const    0x080219bc     0x38  gagent.o [3]
  .rodata            const    0x080219f4     0x38  gagent.o [3]
  .rodata            const    0x08021a2c     0x38  gatnet.o [3]
  .rodata            const    0x08021a64     0x38  nwk_manage.o [3]
  .rodata            const    0x08021a9c     0x38  localio.o [3]
  .rodata            const    0x08021ad4     0x38  tcp.o [3]
  .rodata            const    0x08021b0c     0x38  simulatorcomm.o [3]
  .rodata            const    0x08021b44     0x38  authorization.o [3]
  .rodata            const    0x08021b7c     0x38  localcomm.o [3]
  .rodata            const    0x08021bb4     0x38  localcomm.o [3]
  .rodata            const    0x08021bec     0x38  dp.o [3]
  .rodata            const    0x08021c24     0x38  localprotocol.o [3]
  .rodata            const    0x08021c5c     0x38  mqttgat.o [3]
  .rodata            const    0x08021c94     0x38  mqttgat.o [3]
  .rodata            const    0x08021ccc     0x38  gserver.o [3]
  .rodata            const    0x08021d04     0x38  gserver.o [3]
  .rodata            const    0x08021d3c     0x38  gserver.o [3]
  .rodata            const    0x08021d74     0x38  gserver.o [3]
  .rodata            const    0x08021dac     0x38  httpgat.o [3]
  .rodata            const    0x08021de4     0x38  httpgat.o [3]
  .rodata            const    0x08021e1c     0x38  gatm2m.o [3]
  .rodata            const    0x08021e54     0x38  gatm2m.o [3]
  .rodata            const    0x08021e8c     0x38  gatm2m.o [3]
  .rodata            const    0x08021ec4     0x38  gatm2m.o [3]
  .rodata            const    0x08021efc     0x38  gatm2m.o [3]
  .rodata            const    0x08021f34     0x38  otawan.o [3]
  .rodata            const    0x08021f6c     0x38  otawan.o [3]
  .rodata            const    0x08021fa4     0x38  otawan.o [3]
  .rodata            const    0x08021fdc     0x38  otawan.o [3]
  .rodata            const    0x08022014     0x38  otawan.o [3]
  .rodata            const    0x0802204c     0x38  mqttlib.o [3]
  .rodata            const    0x08022084     0x38  env.o [3]
  .rodata            const    0x080220bc     0x34  iofnet.o [1]
  .rodata            const    0x080220f0     0x34  ioftime.o [1]
  .rodata            const    0x08022124     0x34  iot_flash_config.o [1]
  .rodata            const    0x08022158     0x34  network.o [1]
  .rodata            const    0x0802218c     0x34  timedate.o [1]
  .rodata            const    0x080221c0     0x34  local.o [3]
  .rodata            const    0x080221f4     0x34  gagent.o [3]
  .rodata            const    0x08022228     0x34  gagent.o [3]
  .rodata            const    0x0802225c     0x34  gagent.o [3]
  .rodata            const    0x08022290     0x34  gagent.o [3]
  .rodata            const    0x080222c4     0x34  gagent.o [3]
  .rodata            const    0x080222f8     0x34  productinfo.o [3]
  .rodata            const    0x0802232c     0x34  productinfo.o [3]
  .rodata            const    0x08022360     0x34  productinfo.o [3]
  .rodata            const    0x08022394     0x34  productinfo.o [3]
  .rodata            const    0x080223c8     0x34  gatnet.o [3]
  .rodata            const    0x080223fc     0x34  nwk_manage.o [3]
  .rodata            const    0x08022430     0x34  tcp.o [3]
  .rodata            const    0x08022464     0x34  tcp.o [3]
  .rodata            const    0x08022498     0x34  timer_subsystem.o [3]
  .rodata            const    0x080224cc     0x34  authorization.o [3]
  .rodata            const    0x08022500     0x34  authorization.o [3]
  .rodata            const    0x08022534     0x34  dp.o [3]
  .rodata            const    0x08022568     0x34  dp.o [3]
  .rodata            const    0x0802259c     0x34  gserver.o [3]
  .rodata            const    0x080225d0     0x34  gserver.o [3]
  .rodata            const    0x08022604     0x34  gserver.o [3]
  .rodata            const    0x08022638     0x34  gserver.o [3]
  .rodata            const    0x0802266c     0x34  gserver.o [3]
  .rodata            const    0x080226a0     0x34  httpgat.o [3]
  .rodata            const    0x080226d4     0x34  httpgat.o [3]
  .rodata            const    0x08022708     0x34  gatm2m.o [3]
  .rodata            const    0x0802273c     0x34  otawan.o [3]
  .rodata            const    0x08022770     0x34  otawan.o [3]
  .rodata            const    0x080227a4     0x30  gagent_iot_test_basic_connectivity.o [1]
  .rodata            const    0x080227d4     0x30  iofsocket.o [1]
  .rodata            const    0x08022804     0x30  system_stm32l4xx.o [1]
  .rodata            const    0x08022834     0x30  local.o [3]
  .rodata            const    0x08022864     0x30  gagent.o [3]
  .rodata            const    0x08022894     0x30  gagent.o [3]
  .rodata            const    0x080228c4     0x30  gagent.o [3]
  .rodata            const    0x080228f4     0x30  gagent.o [3]
  .rodata            const    0x08022924     0x30  productinfo.o [3]
  .rodata            const    0x08022954     0x30  productinfo.o [3]
  .rodata            const    0x08022984     0x30  productinfo.o [3]
  .rodata            const    0x080229b4     0x30  productinfo.o [3]
  .rodata            const    0x080229e4     0x30  gatnet.o [3]
  .rodata            const    0x08022a14     0x30  gatnet.o [3]
  .rodata            const    0x08022a44     0x30  gatnet.o [3]
  .rodata            const    0x08022a74     0x30  nwk_manage.o [3]
  .rodata            const    0x08022aa4     0x30  nwk_manage.o [3]
  .rodata            const    0x08022ad4     0x30  nwk_manage.o [3]
  .rodata            const    0x08022b04     0x30  nwk_manage.o [3]
  .rodata            const    0x08022b34     0x30  nwk_manage.o [3]
  .rodata            const    0x08022b64     0x30  tcp.o [3]
  .rodata            const    0x08022b94     0x30  tcp.o [3]
  .rodata            const    0x08022bc4     0x30  timer_subsystem.o [3]
  .rodata            const    0x08022bf4     0x30  simulatorcomm.o [3]
  .rodata            const    0x08022c24     0x30  authorization.o [3]
  .rodata            const    0x08022c54     0x30  mqttgat.o [3]
  .rodata            const    0x08022c84     0x30  mqttgat.o [3]
  .rodata            const    0x08022cb4     0x30  mqttgat.o [3]
  .rodata            const    0x08022ce4     0x30  mqttgat.o [3]
  .rodata            const    0x08022d14     0x30  mqttgat.o [3]
  .rodata            const    0x08022d44     0x30  mqttgat.o [3]
  .rodata            const    0x08022d74     0x30  mqttgat.o [3]
  .rodata            const    0x08022da4     0x30  gdns.o [3]
  .rodata            const    0x08022dd4     0x30  gserver.o [3]
  .rodata            const    0x08022e04     0x30  gserver.o [3]
  .rodata            const    0x08022e34     0x30  gserver.o [3]
  .rodata            const    0x08022e64     0x30  gserver.o [3]
  .rodata            const    0x08022e94     0x30  gserver.o [3]
  .rodata            const    0x08022ec4     0x30  gserver.o [3]
  .rodata            const    0x08022ef4     0x30  gserver.o [3]
  .rodata            const    0x08022f24     0x30  httpgat.o [3]
  .rodata            const    0x08022f54     0x30  gatm2m.o [3]
  .rodata            const    0x08022f84     0x30  gatm2m.o [3]
  .rodata            const    0x08022fb4     0x30  gatm2m.o [3]
  .rodata            const    0x08022fe4     0x30  gatm2m.o [3]
  .rodata            const    0x08023014     0x30  gatm2m.o [3]
  .rodata            const    0x08023044     0x30  otawan.o [3]
  .rodata            const    0x08023074     0x30  otawan.o [3]
  .rodata            const    0x080230a4     0x2c  flash_l4.o [1]
  .rodata            const    0x080230d0     0x2c  iofnet.o [1]
  .rodata            const    0x080230fc     0x2c  iofnet.o [1]
  .rodata            const    0x08023128     0x2c  iofsocket.o [1]
  .rodata            const    0x08023154     0x2c  iot_flash_config.o [1]
  .rodata            const    0x08023180     0x2c  network.o [1]
  .rodata            const    0x080231ac     0x2c  local.o [3]
  .rodata            const    0x080231d8     0x2c  gagent.o [3]
  .rodata            const    0x08023204     0x2c  gagent.o [3]
  .rodata            const    0x08023230     0x2c  gagent.o [3]
  .rodata            const    0x0802325c     0x2c  gagent.o [3]
  .rodata            const    0x08023288     0x2c  gagent.o [3]
  .rodata            const    0x080232b4     0x2c  gagent.o [3]
  .rodata            const    0x080232e0     0x2c  productinfo.o [3]
  .rodata            const    0x0802330c     0x2c  productinfo.o [3]
  .rodata            const    0x08023338     0x2c  productinfo.o [3]
  .rodata            const    0x08023364     0x2c  productinfo.o [3]
  .rodata            const    0x08023390     0x2c  productinfo.o [3]
  .rodata            const    0x080233bc     0x2c  productinfo.o [3]
  .rodata            const    0x080233e8     0x2c  productinfo.o [3]
  .rodata            const    0x08023414     0x2c  productinfo.o [3]
  .rodata            const    0x08023440     0x2c  productinfo.o [3]
  .rodata            const    0x0802346c     0x2c  productinfo.o [3]
  .rodata            const    0x08023498     0x2c  productinfo.o [3]
  .rodata            const    0x080234c4     0x2c  productinfo.o [3]
  .rodata            const    0x080234f0     0x2c  productinfo.o [3]
  .rodata            const    0x0802351c     0x2c  productinfo.o [3]
  .rodata            const    0x08023548     0x2c  productinfo.o [3]
  .rodata            const    0x08023574     0x2c  productinfo.o [3]
  .rodata            const    0x080235a0     0x2c  gatnet.o [3]
  .rodata            const    0x080235cc     0x2c  nwk_manage.o [3]
  .rodata            const    0x080235f8     0x2c  nwk_manage.o [3]
  .rodata            const    0x08023624     0x2c  nwk_manage.o [3]
  .rodata            const    0x08023650     0x2c  tcp.o [3]
  .rodata            const    0x0802367c     0x2c  tcp.o [3]
  .rodata            const    0x080236a8     0x2c  tcp.o [3]
  .rodata            const    0x080236d4     0x2c  tcp.o [3]
  .rodata            const    0x08023700     0x2c  timer_subsystem.o [3]
  .rodata            const    0x0802372c     0x2c  authorization.o [3]
  .rodata            const    0x08023758     0x2c  authorization.o [3]
  .rodata            const    0x08023784     0x2c  authorization.o [3]
  .rodata            const    0x080237b0     0x2c  localcomm.o [3]
  .rodata            const    0x080237dc     0x2c  mqttgat.o [3]
  .rodata            const    0x08023808     0x2c  mqttgat.o [3]
  .rodata            const    0x08023834     0x2c  gdns.o [3]
  .rodata            const    0x08023860     0x2c  gdns.o [3]
  .rodata            const    0x0802388c     0x2c  gserver.o [3]
  .rodata            const    0x080238b8     0x2c  gserver.o [3]
  .rodata            const    0x080238e4     0x2c  gserver.o [3]
  .rodata            const    0x08023910     0x2c  gserver.o [3]
  .rodata            const    0x0802393c     0x2c  gserver.o [3]
  .rodata            const    0x08023968     0x2c  gserver.o [3]
  .rodata            const    0x08023994     0x2c  gserver.o [3]
  .rodata            const    0x080239c0     0x2c  gserver.o [3]
  .rodata            const    0x080239ec     0x2c  gserver.o [3]
  .rodata            const    0x08023a18     0x2c  httpgat.o [3]
  .rodata            const    0x08023a44     0x2c  httpgat.o [3]
  .rodata            const    0x08023a70     0x2c  httpgat.o [3]
  .rodata            const    0x08023a9c     0x2c  httpgat.o [3]
  .rodata            const    0x08023ac8     0x2c  httpgat.o [3]
  .rodata            const    0x08023af4     0x2c  httpgat.o [3]
  .rodata            const    0x08023b20     0x2c  lanvirtual.o [3]
  .rodata            const    0x08023b4c     0x2c  gatm2m.o [3]
  .rodata            const    0x08023b78     0x2c  otawan.o [3]
  .rodata            const    0x08023ba4     0x2c  otawan.o [3]
  .rodata            const    0x08023bd0     0x2c  mqttlib.o [3]
  .rodata            const    0x08023bfc     0x2c  env.o [3]
  .rodata            const    0x08023c28     0x28  gagent_iot_test_basic_connectivity.o [1]
  .rodata            const    0x08023c50     0x28  iofnet.o [1]
  .rodata            const    0x08023c78     0x28  iofnet.o [1]
  .rodata            const    0x08023ca0     0x28  iofserial.o [1]
  .rodata            const    0x08023cc8     0x28  network.o [1]
  .rodata            const    0x08023cf0     0x28  local.o [3]
  .rodata            const    0x08023d18     0x28  local.o [3]
  .rodata            const    0x08023d40     0x28  local.o [3]
  .rodata            const    0x08023d68     0x28  local.o [3]
  .rodata            const    0x08023d90     0x28  local.o [3]
  .rodata            const    0x08023db8     0x28  local.o [3]
  .rodata            const    0x08023de0     0x28  local.o [3]
  .rodata            const    0x08023e08     0x28  local.o [3]
  .rodata            const    0x08023e30     0x28  gagent.o [3]
  .rodata            const    0x08023e58     0x28  gagent.o [3]
  .rodata            const    0x08023e80     0x28  productinfo.o [3]
  .rodata            const    0x08023ea8     0x28  productinfo.o [3]
  .rodata            const    0x08023ed0     0x28  gatnet.o [3]
  .rodata            const    0x08023ef8     0x28  nwk_manage.o [3]
  .rodata            const    0x08023f20     0x28  nwk_manage.o [3]
  .rodata            const    0x08023f48     0x28  nwk_manage.o [3]
  .rodata            const    0x08023f70     0x28  nwk_manage.o [3]
  .rodata            const    0x08023f98     0x28  nwk_manage.o [3]
  .rodata            const    0x08023fc0     0x28  nwk_manage.o [3]
  .rodata            const    0x08023fe8     0x28  localio.o [3]
  .rodata            const    0x08024010     0x28  tcp.o [3]
  .rodata            const    0x08024038     0x28  tcp.o [3]
  .rodata            const    0x08024060     0x28  tcp.o [3]
  .rodata            const    0x08024088     0x28  tcp.o [3]
  .rodata            const    0x080240b0     0x28  tcp.o [3]
  .rodata            const    0x080240d8     0x28  tcp.o [3]
  .rodata            const    0x08024100     0x28  tcp.o [3]
  .rodata            const    0x08024128     0x28  timer_subsystem.o [3]
  .rodata            const    0x08024150     0x28  simulatorcomm.o [3]
  .rodata            const    0x08024178     0x28  simulatorcomm.o [3]
  .rodata            const    0x080241a0     0x28  gatutilcode.o [3]
  .rodata            const    0x080241c8     0x28  gatutilcode.o [3]
  .rodata            const    0x080241f0     0x28  authorization.o [3]
  .rodata            const    0x08024218     0x28  authorization.o [3]
  .rodata            const    0x08024240     0x28  authorization.o [3]
  .rodata            const    0x08024268     0x28  localcomm.o [3]
  .rodata            const    0x08024290     0x28  dp.o [3]
  .rodata            const    0x080242b8     0x28  mqttgat.o [3]
  .rodata            const    0x080242e0     0x28  mqttgat.o [3]
  .rodata            const    0x08024308     0x28  mqttgat.o [3]
  .rodata            const    0x08024330     0x28  mqttgat.o [3]
  .rodata            const    0x08024358     0x28  mqttgat.o [3]
  .rodata            const    0x08024380     0x28  mqttgat.o [3]
  .rodata            const    0x080243a8     0x28  mqttgat.o [3]
  .rodata            const    0x080243d0     0x28  mqttgat.o [3]
  .rodata            const    0x080243f8     0x28  gdns.o [3]
  .rodata            const    0x08024420     0x28  gdns.o [3]
  .rodata            const    0x08024448     0x28  gserver.o [3]
  .rodata            const    0x08024470     0x28  gserver.o [3]
  .rodata            const    0x08024498     0x28  gserver.o [3]
  .rodata            const    0x080244c0     0x28  gserver.o [3]
  .rodata            const    0x080244e8     0x28  gserver.o [3]
  .rodata            const    0x08024510     0x28  gserver.o [3]
  .rodata            const    0x08024538     0x28  gserver.o [3]
  .rodata            const    0x08024560     0x28  gserver.o [3]
  .rodata            const    0x08024588     0x28  gserver.o [3]
  .rodata            const    0x080245b0     0x28  gserver.o [3]
  .rodata            const    0x080245d8     0x28  gserver.o [3]
  .rodata            const    0x08024600     0x28  httpgat.o [3]
  .rodata            const    0x08024628     0x28  httpgat.o [3]
  .rodata            const    0x08024650     0x28  httpgat.o [3]
  .rodata            const    0x08024678     0x28  httpgat.o [3]
  .rodata            const    0x080246a0     0x28  httpgat.o [3]
  .rodata            const    0x080246c8     0x28  httpgat.o [3]
  .rodata            const    0x080246f0     0x28  httpgat.o [3]
  .rodata            const    0x08024718     0x28  gatm2m.o [3]
  .rodata            const    0x08024740     0x28  gatm2m.o [3]
  .rodata            const    0x08024768     0x28  gatm2m.o [3]
  .rodata            const    0x08024790     0x28  otawan.o [3]
  .rodata            const    0x080247b8     0x28  otawan.o [3]
  .rodata            const    0x080247e0     0x28  otawan.o [3]
  .rodata            const    0x08024808     0x28  otawan.o [3]
  .rodata            const    0x08024830     0x28  otawan.o [3]
  .rodata            const    0x08024858     0x28  env.o [3]
  .rodata            const    0x08024880     0x28  env.o [3]
  .rodata            const    0x080248a8     0x28  env.o [3]
  .text              ro code  0x080248d0     0x28  data_init.o [6]
  .rodata            const    0x080248f8     0x24  flash_l4.o [1]
  .rodata            const    0x0802491c     0x24  gagent_iot_test_basic_connectivity.o [1]
  .rodata            const    0x08024940     0x24  ioffile.o [1]
  .rodata            const    0x08024964     0x24  iofnet.o [1]
  .rodata            const    0x08024988     0x24  iofsocket.o [1]
  .rodata            const    0x080249ac     0x24  iofsocket.o [1]
  .rodata            const    0x080249d0     0x24  iot_flash_config.o [1]
  .rodata            const    0x080249f4     0x24  network.o [1]
  .rodata            const    0x08024a18     0x24  network.o [1]
  .rodata            const    0x08024a3c     0x24  gagent.o [3]
  .rodata            const    0x08024a60     0x24  gagent.o [3]
  .rodata            const    0x08024a84     0x24  gagent.o [3]
  .rodata            const    0x08024aa8     0x24  productinfo.o [3]
  .rodata            const    0x08024acc     0x24  productinfo.o [3]
  .rodata            const    0x08024af0     0x24  productinfo.o [3]
  .rodata            const    0x08024b14     0x24  productinfo.o [3]
  .rodata            const    0x08024b38     0x24  productinfo.o [3]
  .rodata            const    0x08024b5c     0x24  gatnet.o [3]
  .rodata            const    0x08024b80     0x24  gatnet.o [3]
  .rodata            const    0x08024ba4     0x24  nwk_manage.o [3]
  .rodata            const    0x08024bc8     0x24  nwk_manage.o [3]
  .rodata            const    0x08024bec     0x24  nwk_manage.o [3]
  .rodata            const    0x08024c10     0x24  nwk_manage.o [3]
  .rodata            const    0x08024c34     0x24  nwk_manage.o [3]
  .rodata            const    0x08024c58     0x24  localio.o [3]
  .rodata            const    0x08024c7c     0x24  localio.o [3]
  .rodata            const    0x08024ca0     0x24  localio.o [3]
  .rodata            const    0x08024cc4     0x24  localio.o [3]
  .rodata            const    0x08024ce8     0x24  localio.o [3]
  .rodata            const    0x08024d0c     0x24  localio.o [3]
  .rodata            const    0x08024d30     0x24  localio.o [3]
  .rodata            const    0x08024d54     0x24  localio.o [3]
  .rodata            const    0x08024d78     0x24  tcp.o [3]
  .rodata            const    0x08024d9c     0x24  tcp.o [3]
  .rodata            const    0x08024dc0     0x24  tcp.o [3]
  .rodata            const    0x08024de4     0x24  timer_subsystem.o [3]
  .rodata            const    0x08024e08     0x24  timer_subsystem.o [3]
  .rodata            const    0x08024e2c     0x24  simulatorcomm.o [3]
  .rodata            const    0x08024e50     0x24  authorization.o [3]
  .rodata            const    0x08024e74     0x24  authorization.o [3]
  .rodata            const    0x08024e98     0x24  authorization.o [3]
  .rodata            const    0x08024ebc     0x24  authorization.o [3]
  .rodata            const    0x08024ee0     0x24  authorization.o [3]
  .rodata            const    0x08024f04     0x24  localcomm.o [3]
  .rodata            const    0x08024f28     0x24  mqttgat.o [3]
  .rodata            const    0x08024f4c     0x24  mqttgat.o [3]
  .rodata            const    0x08024f70     0x24  mqttgat.o [3]
  .rodata            const    0x08024f94     0x24  gdns.o [3]
  .rodata            const    0x08024fb8     0x24  gdns.o [3]
  .rodata            const    0x08024fdc     0x24  gserver.o [3]
  .rodata            const    0x08025000     0x24  gserver.o [3]
  .rodata            const    0x08025024     0x24  gserver.o [3]
  .rodata            const    0x08025048     0x24  gserver.o [3]
  .rodata            const    0x0802506c     0x24  gserver.o [3]
  .rodata            const    0x08025090     0x24  gserver.o [3]
  .rodata            const    0x080250b4     0x24  gserver.o [3]
  .rodata            const    0x080250d8     0x24  gserver.o [3]
  .rodata            const    0x080250fc     0x24  gserver.o [3]
  .rodata            const    0x08025120     0x24  gserver.o [3]
  .rodata            const    0x08025144     0x24  gserver.o [3]
  .rodata            const    0x08025168     0x24  gserver.o [3]
  .rodata            const    0x0802518c     0x24  httpgat.o [3]
  .rodata            const    0x080251b0     0x24  httpgat.o [3]
  .rodata            const    0x080251d4     0x24  httpgat.o [3]
  .rodata            const    0x080251f8     0x24  httpgat.o [3]
  .rodata            const    0x0802521c     0x24  httpgat.o [3]
  .rodata            const    0x08025240     0x24  httpgat.o [3]
  .rodata            const    0x08025264     0x24  httpgat.o [3]
  .rodata            const    0x08025288     0x24  httpgat.o [3]
  .rodata            const    0x080252ac     0x24  httpgat.o [3]
  .rodata            const    0x080252d0     0x24  gatm2m.o [3]
  .rodata            const    0x080252f4     0x24  gatm2m.o [3]
  .rodata            const    0x08025318     0x24  gatm2m.o [3]
  .rodata            const    0x0802533c     0x24  gatm2m.o [3]
  .rodata            const    0x08025360     0x24  gatm2m.o [3]
  .rodata            const    0x08025384     0x24  gatm2m.o [3]
  .rodata            const    0x080253a8     0x24  otawan.o [3]
  .rodata            const    0x080253cc     0x24  otawan.o [3]
  .rodata            const    0x080253f0     0x24  otawan.o [3]
  .rodata            const    0x08025414     0x24  otawan.o [3]
  .rodata            const    0x08025438     0x24  otawan.o [3]
  .rodata            const    0x0802545c     0x24  otawan.o [3]
  .rodata            const    0x08025480     0x24  otawan.o [3]
  .rodata            const    0x080254a4     0x24  otawan.o [3]
  .rodata            const    0x080254c8     0x24  mqttlib.o [3]
  .rodata            const    0x080254ec     0x24  env.o [3]
  .text              ro code  0x08025510     0x22  fpinit_M.o [5]
  .iar.init_table    const    0x08025534     0x2c  - Linker created -
  .rodata            const    0x08025560     0x20  es_wifi.o [1]
  .rodata            const    0x08025580     0x20  es_wifi.o [1]
  .rodata            const    0x080255a0     0x20  es_wifi.o [1]
  .rodata            const    0x080255c0     0x20  gagent_iot_test_basic_connectivity.o [1]
  .rodata            const    0x080255e0     0x20  gagent_iot_test_basic_connectivity.o [1]
  .rodata            const    0x08025600     0x20  gagent_iot_test_basic_connectivity.o [1]
  .rodata            const    0x08025620     0x20  gagent_iot_test_basic_connectivity.o [1]
  .rodata            const    0x08025640     0x20  iofnet.o [1]
  .rodata            const    0x08025660     0x20  ioftime.o [1]
  .rodata            const    0x08025680     0x20  ioftime.o [1]
  .rodata            const    0x080256a0     0x20  ioftime.o [1]
  .rodata            const    0x080256c0     0x20  network.o [1]
  .rodata            const    0x080256e0     0x20  network.o [1]
  .rodata            const    0x08025700     0x20  network.o [1]
  .rodata            const    0x08025720     0x20  sensors_data.o [1]
  .rodata            const    0x08025740     0x20  sensors_data.o [1]
  .rodata            const    0x08025760     0x20  sensors_data.o [1]
  .rodata            const    0x08025780     0x20  sensors_data.o [1]
  .rodata            const    0x080257a0     0x20  timedate.o [1]
  .rodata            const    0x080257c0     0x20  timedate.o [1]
  .rodata            const    0x080257e0     0x20  local.o [3]
  .rodata            const    0x08025800     0x20  local.o [3]
  .rodata            const    0x08025820     0x20  gagent.o [3]
  .rodata            const    0x08025840     0x20  gagent.o [3]
  .rodata            const    0x08025860     0x20  gagent.o [3]
  .rodata            const    0x08025880     0x20  gagent.o [3]
  .rodata            const    0x080258a0     0x20  gagent.o [3]
  .rodata            const    0x080258c0     0x20  gagent.o [3]
  .rodata            const    0x080258e0     0x20  gagent.o [3]
  .rodata            const    0x08025900     0x20  productinfo.o [3]
  .rodata            const    0x08025920     0x20  productinfo.o [3]
  .rodata            const    0x08025940     0x20  productinfo.o [3]
  .rodata            const    0x08025960     0x20  productinfo.o [3]
  .rodata            const    0x08025980     0x20  productinfo.o [3]
  .rodata            const    0x080259a0     0x20  productinfo.o [3]
  .rodata            const    0x080259c0     0x20  productinfo.o [3]
  .rodata            const    0x080259e0     0x20  gatnet.o [3]
  .rodata            const    0x08025a00     0x20  gatnet.o [3]
  .rodata            const    0x08025a20     0x20  gatnet.o [3]
  .rodata            const    0x08025a40     0x20  nwk_manage.o [3]
  .rodata            const    0x08025a60     0x20  nwk_manage.o [3]
  .rodata            const    0x08025a80     0x20  nwk_manage.o [3]
  .rodata            const    0x08025aa0     0x20  nwk_manage.o [3]
  .rodata            const    0x08025ac0     0x20  nwk_manage.o [3]
  .rodata            const    0x08025ae0     0x20  nwk_manage.o [3]
  .rodata            const    0x08025b00     0x20  nwk_manage.o [3]
  .rodata            const    0x08025b20     0x20  nwk_manage.o [3]
  .rodata            const    0x08025b40     0x20  localio.o [3]
  .rodata            const    0x08025b60     0x20  localio.o [3]
  .rodata            const    0x08025b80     0x20  tcp.o [3]
  .rodata            const    0x08025ba0     0x20  tcp.o [3]
  .rodata            const    0x08025bc0     0x20  tcp.o [3]
  .rodata            const    0x08025be0     0x20  tcp.o [3]
  .rodata            const    0x08025c00     0x20  tcp.o [3]
  .rodata            const    0x08025c20     0x20  tcp.o [3]
  .rodata            const    0x08025c40     0x20  tcp.o [3]
  .rodata            const    0x08025c60     0x20  timer_subsystem.o [3]
  .rodata            const    0x08025c80     0x20  simulatorcomm.o [3]
  .rodata            const    0x08025ca0     0x20  simulatorcomm.o [3]
  .rodata            const    0x08025cc0     0x20  simulatorcomm.o [3]
  .rodata            const    0x08025ce0     0x20  simulatorcomm.o [3]
  .rodata            const    0x08025d00     0x20  gatutilcode.o [3]
  .rodata            const    0x08025d20     0x20  gatutilcode.o [3]
  .rodata            const    0x08025d40     0x20  authorization.o [3]
  .rodata            const    0x08025d60     0x20  authorization.o [3]
  .rodata            const    0x08025d80     0x20  authorization.o [3]
  .rodata            const    0x08025da0     0x20  mqttgat.o [3]
  .rodata            const    0x08025dc0     0x20  mqttgat.o [3]
  .rodata            const    0x08025de0     0x20  mqttgat.o [3]
  .rodata            const    0x08025e00     0x20  mqttgat.o [3]
  .rodata            const    0x08025e20     0x20  mqttgat.o [3]
  .rodata            const    0x08025e40     0x20  mqttgat.o [3]
  .rodata            const    0x08025e60     0x20  mqttgat.o [3]
  .rodata            const    0x08025e80     0x20  mqttgat.o [3]
  .rodata            const    0x08025ea0     0x20  gdns.o [3]
  .rodata            const    0x08025ec0     0x20  gserver.o [3]
  .rodata            const    0x08025ee0     0x20  gserver.o [3]
  .rodata            const    0x08025f00     0x20  gserver.o [3]
  .rodata            const    0x08025f20     0x20  gserver.o [3]
  .rodata            const    0x08025f40     0x20  gserver.o [3]
  .rodata            const    0x08025f60     0x20  gserver.o [3]
  .rodata            const    0x08025f80     0x20  httpgat.o [3]
  .rodata            const    0x08025fa0     0x20  httpgat.o [3]
  .rodata            const    0x08025fc0     0x20  httpgat.o [3]
  .rodata            const    0x08025fe0     0x20  httpgat.o [3]
  .rodata            const    0x08026000     0x20  httpgat.o [3]
  .rodata            const    0x08026020     0x20  httpgat.o [3]
  .rodata            const    0x08026040     0x20  gatm2m.o [3]
  .rodata            const    0x08026060     0x20  gatm2m.o [3]
  .rodata            const    0x08026080     0x20  gatm2m.o [3]
  .rodata            const    0x080260a0     0x20  gatm2m.o [3]
  .rodata            const    0x080260c0     0x20  gatm2m.o [3]
  .rodata            const    0x080260e0     0x20  gatm2m.o [3]
  .rodata            const    0x08026100     0x20  gatm2m.o [3]
  .rodata            const    0x08026120     0x20  gatm2m.o [3]
  .rodata            const    0x08026140     0x20  gatm2m.o [3]
  .rodata            const    0x08026160     0x20  gatm2m.o [3]
  .rodata            const    0x08026180     0x20  gatm2m.o [3]
  .rodata            const    0x080261a0     0x20  gatm2m.o [3]
  .rodata            const    0x080261c0     0x20  gatm2m.o [3]
  .rodata            const    0x080261e0     0x20  gatm2m.o [3]
  .rodata            const    0x08026200     0x20  gatm2m.o [3]
  .rodata            const    0x08026220     0x20  otawan.o [3]
  .rodata            const    0x08026240     0x20  otawan.o [3]
  .rodata            const    0x08026260     0x20  otawan.o [3]
  .rodata            const    0x08026280     0x20  otawan.o [3]
  .rodata            const    0x080262a0     0x20  env.o [3]
  .rodata            const    0x080262c0     0x20  env.o [3]
  .text              ro code  0x080262e0     0x1e  cmain.o [6]
  .text              ro code  0x080262fe      0x4  low_level_init.o [4]
  .text              ro code  0x08026302      0x4  exit.o [4]
  .text              ro code  0x08026308      0xa  cexit.o [6]
  .rodata            const    0x08026314     0x1c  es_wifi.o [1]
  .rodata            const    0x08026330     0x1c  es_wifi.o [1]
  .rodata            const    0x0802634c     0x1c  flash_l4.o [1]
  .rodata            const    0x08026368     0x1c  gagent_iot_test_basic_connectivity.o [1]
  .rodata            const    0x08026384     0x1c  gagent_iot_test_basic_connectivity.o [1]
  .rodata            const    0x080263a0     0x1c  gagent_iot_test_basic_connectivity.o [1]
  .rodata            const    0x080263bc     0x1c  gagent_iot_test_basic_connectivity.o [1]
  .rodata            const    0x080263d8     0x1c  gagent_iot_test_basic_connectivity.o [1]
  .rodata            const    0x080263f4     0x1c  gagent_iot_test_basic_connectivity.o [1]
  .rodata            const    0x08026410     0x1c  iofnet.o [1]
  .rodata            const    0x0802642c     0x1c  iofnet.o [1]
  .rodata            const    0x08026448     0x1c  iofserial.o [1]
  .rodata            const    0x08026464     0x1c  ioftime.o [1]
  .rodata            const    0x08026480     0x1c  network.o [1]
  .rodata            const    0x0802649c     0x1c  network.o [1]
  .rodata            const    0x080264b8     0x1c  timedate.o [1]
  .rodata            const    0x080264d4     0x1c  local.o [3]
  .rodata            const    0x080264f0     0x1c  local.o [3]
  .rodata            const    0x0802650c     0x1c  local.o [3]
  .rodata            const    0x08026528     0x1c  gagent.o [3]
  .rodata            const    0x08026544     0x1c  gagent.o [3]
  .rodata            const    0x08026560     0x1c  gagent.o [3]
  .rodata            const    0x0802657c     0x1c  gagent.o [3]
  .rodata            const    0x08026598     0x1c  gagent.o [3]
  .rodata            const    0x080265b4     0x1c  gagent.o [3]
  .rodata            const    0x080265d0     0x1c  productinfo.o [3]
  .rodata            const    0x080265ec     0x1c  productinfo.o [3]
  .rodata            const    0x08026608     0x1c  productinfo.o [3]
  .rodata            const    0x08026624     0x1c  productinfo.o [3]
  .rodata            const    0x08026640     0x1c  productinfo.o [3]
  .rodata            const    0x0802665c     0x1c  productinfo.o [3]
  .rodata            const    0x08026678     0x1c  productinfo.o [3]
  .rodata            const    0x08026694     0x1c  gatnet.o [3]
  .rodata            const    0x080266b0     0x1c  nwk_manage.o [3]
  .rodata            const    0x080266cc     0x1c  nwk_manage.o [3]
  .rodata            const    0x080266e8     0x1c  nwk_manage.o [3]
  .rodata            const    0x08026704     0x1c  nwk_manage.o [3]
  .rodata            const    0x08026720     0x1c  localio.o [3]
  .rodata            const    0x0802673c     0x1c  localio.o [3]
  .rodata            const    0x08026758     0x1c  localio.o [3]
  .rodata            const    0x08026774     0x1c  localio.o [3]
  .rodata            const    0x08026790     0x1c  localio.o [3]
  .rodata            const    0x080267ac     0x1c  localio.o [3]
  .rodata            const    0x080267c8     0x1c  tcp.o [3]
  .rodata            const    0x080267e4     0x1c  tcp.o [3]
  .rodata            const    0x08026800     0x1c  tcp.o [3]
  .rodata            const    0x0802681c     0x1c  tcp.o [3]
  .rodata            const    0x08026838     0x1c  tcp.o [3]
  .rodata            const    0x08026854     0x1c  tcp.o [3]
  .rodata            const    0x08026870     0x1c  tcp.o [3]
  .rodata            const    0x0802688c     0x1c  timer_subsystem.o [3]
  .rodata            const    0x080268a8     0x1c  timer_subsystem.o [3]
  .rodata            const    0x080268c4     0x1c  timer_subsystem.o [3]
  .rodata            const    0x080268e0     0x1c  timer_subsystem.o [3]
  .rodata            const    0x080268fc     0x1c  timer_subsystem.o [3]
  .rodata            const    0x08026918     0x1c  simulatorcomm.o [3]
  .rodata            const    0x08026934     0x1c  simulatorcomm.o [3]
  .rodata            const    0x08026950     0x1c  simulatorcomm.o [3]
  .rodata            const    0x0802696c     0x1c  simulatorcomm.o [3]
  .rodata            const    0x08026988     0x1c  simulatorcomm.o [3]
  .rodata            const    0x080269a4     0x1c  gatutilcode.o [3]
  .rodata            const    0x080269c0     0x1c  authorization.o [3]
  .rodata            const    0x080269dc     0x1c  localcomm.o [3]
  .rodata            const    0x080269f8     0x1c  localcomm.o [3]
  .rodata            const    0x08026a14     0x1c  localcomm.o [3]
  .rodata            const    0x08026a30     0x1c  localcomm.o [3]
  .rodata            const    0x08026a4c     0x1c  localprotocol.o [3]
  .rodata            const    0x08026a68     0x1c  localprotocol.o [3]
  .rodata            const    0x08026a84     0x1c  mqttgat.o [3]
  .rodata            const    0x08026aa0     0x1c  mqttgat.o [3]
  .rodata            const    0x08026abc     0x1c  gdns.o [3]
  .rodata            const    0x08026ad8     0x1c  gdns.o [3]
  .rodata            const    0x08026af4     0x1c  gdns.o [3]
  .rodata            const    0x08026b10     0x1c  gdns.o [3]
  .rodata            const    0x08026b2c     0x1c  gdns.o [3]
  .rodata            const    0x08026b48     0x1c  gdns.o [3]
  .rodata            const    0x08026b64     0x1c  gdns.o [3]
  .rodata            const    0x08026b80     0x1c  gdns.o [3]
  .rodata            const    0x08026b9c     0x1c  gdns.o [3]
  .rodata            const    0x08026bb8     0x1c  gserver.o [3]
  .rodata            const    0x08026bd4     0x1c  gserver.o [3]
  .rodata            const    0x08026bf0     0x1c  gserver.o [3]
  .rodata            const    0x08026c0c     0x1c  gserver.o [3]
  .rodata            const    0x08026c28     0x1c  gserver.o [3]
  .rodata            const    0x08026c44     0x1c  gserver.o [3]
  .rodata            const    0x08026c60     0x1c  gserver.o [3]
  .rodata            const    0x08026c7c     0x1c  gserver.o [3]
  .rodata            const    0x08026c98     0x1c  gserver.o [3]
  .rodata            const    0x08026cb4     0x1c  gserver.o [3]
  .rodata            const    0x08026cd0     0x1c  gserver.o [3]
  .rodata            const    0x08026cec     0x1c  gserver.o [3]
  .rodata            const    0x08026d08     0x1c  gserver.o [3]
  .rodata            const    0x08026d24     0x1c  gserver.o [3]
  .rodata            const    0x08026d40     0x1c  httpgat.o [3]
  .rodata            const    0x08026d5c     0x1c  httpgat.o [3]
  .rodata            const    0x08026d78     0x1c  httpgat.o [3]
  .rodata            const    0x08026d94     0x1c  httpgat.o [3]
  .rodata            const    0x08026db0     0x1c  httpgat.o [3]
  .rodata            const    0x08026dcc     0x1c  gatm2m.o [3]
  .rodata            const    0x08026de8     0x1c  gatm2m.o [3]
  .rodata            const    0x08026e04     0x1c  gatm2m.o [3]
  .rodata            const    0x08026e20     0x1c  gatm2m.o [3]
  .rodata            const    0x08026e3c     0x1c  gatm2m.o [3]
  .rodata            const    0x08026e58     0x1c  gatm2m.o [3]
  .rodata            const    0x08026e74     0x1c  otawan.o [3]
  .rodata            const    0x08026e90     0x1c  otawan.o [3]
  .rodata            const    0x08026eac     0x1c  otawan.o [3]
  .rodata            const    0x08026ec8     0x1c  otawan.o [3]
  .rodata            const    0x08026ee4     0x1c  otawan.o [3]
  .rodata            const    0x08026f00     0x1c  otawan.o [3]
  .rodata            const    0x08026f1c     0x1c  otawan.o [3]
  .rodata            const    0x08026f38     0x1c  otawan.o [3]
  .rodata            const    0x08026f54     0x1c  otawan.o [3]
  .rodata            const    0x08026f70     0x1c  otawan.o [3]
  .rodata            const    0x08026f8c     0x1c  otawan.o [3]
  .rodata            const    0x08026fa8     0x1c  mqttlib.o [3]
  .rodata            const    0x08026fc4     0x1c  mqttlib.o [3]
  .rodata            const    0x08026fe0     0x1c  env.o [3]
  .rodata            const    0x08026ffc     0x1c  env.o [3]
  .rodata            const    0x08027018     0x18  es_wifi.o [1]
  .rodata            const    0x08027030     0x18  gagent_iot_test_basic_connectivity.o [1]
  .rodata            const    0x08027048     0x18  iofdev.o [1]
  .rodata            const    0x08027060     0x18  iofnet.o [1]
  .rodata            const    0x08027078     0x18  iofserial.o [1]
  .rodata            const    0x08027090     0x18  ioftime.o [1]
  .rodata            const    0x080270a8     0x18  iot_flash_config.o [1]
  .rodata            const    0x080270c0     0x18  network.o [1]
  .rodata            const    0x080270d8     0x18  semaph.o [1]
  .rodata            const    0x080270f0     0x18  semaph.o [1]
  .rodata            const    0x08027108     0x18  gagent.o [3]
  .rodata            const    0x08027120     0x18  gagent.o [3]
  .rodata            const    0x08027138     0x18  gagent.o [3]
  .rodata            const    0x08027150     0x18  gagent.o [3]
  .rodata            const    0x08027168     0x18  gagent.o [3]
  .rodata            const    0x08027180     0x18  gagent.o [3]
  .rodata            const    0x08027198     0x18  gagent.o [3]
  .rodata            const    0x080271b0     0x18  gagent.o [3]
  .rodata            const    0x080271c8     0x18  gagent.o [3]
  .rodata            const    0x080271e0     0x18  gagent.o [3]
  .rodata            const    0x080271f8     0x18  gagent.o [3]
  .rodata            const    0x08027210     0x18  productinfo.o [3]
  .rodata            const    0x08027228     0x18  productinfo.o [3]
  .rodata            const    0x08027240     0x18  productinfo.o [3]
  .rodata            const    0x08027258     0x18  productinfo.o [3]
  .rodata            const    0x08027270     0x18  gatnet.o [3]
  .rodata            const    0x08027288     0x18  nwk_manage.o [3]
  .rodata            const    0x080272a0     0x18  nwk_manage.o [3]
  .rodata            const    0x080272b8     0x18  nwk_manage.o [3]
  .rodata            const    0x080272d0     0x18  nwk_manage.o [3]
  .rodata            const    0x080272e8     0x18  nwk_manage.o [3]
  .rodata            const    0x08027300     0x18  nwk_manage.o [3]
  .rodata            const    0x08027318     0x18  nwk_manage.o [3]
  .rodata            const    0x08027330     0x18  localio.o [3]
  .rodata            const    0x08027348     0x18  localio.o [3]
  .rodata            const    0x08027360     0x18  tcp.o [3]
  .rodata            const    0x08027378     0x18  tcp.o [3]
  .rodata            const    0x08027390     0x18  tcp.o [3]
  .rodata            const    0x080273a8     0x18  tcp.o [3]
  .rodata            const    0x080273c0     0x18  timer_subsystem.o [3]
  .rodata            const    0x080273d8     0x18  simulatorcomm.o [3]
  .rodata            const    0x080273f0     0x18  simulatorcomm.o [3]
  .rodata            const    0x08027408     0x18  gatutilcode.o [3]
  .rodata            const    0x08027420     0x18  authorization.o [3]
  .rodata            const    0x08027438     0x18  authorization.o [3]
  .rodata            const    0x08027450     0x18  localcomm.o [3]
  .rodata            const    0x08027468     0x18  localcomm.o [3]
  .rodata            const    0x08027480     0x18  localcomm.o [3]
  .rodata            const    0x08027498     0x18  localcomm.o [3]
  .rodata            const    0x080274b0     0x18  localcomm.o [3]
  .rodata            const    0x080274c8     0x18  dp.o [3]
  .rodata            const    0x080274e0     0x18  mqttgat.o [3]
  .rodata            const    0x080274f8     0x18  mqttgat.o [3]
  .rodata            const    0x08027510     0x18  mqttgat.o [3]
  .rodata            const    0x08027528     0x18  gdns.o [3]
  .rodata            const    0x08027540     0x18  gdns.o [3]
  .rodata            const    0x08027558     0x18  gdns.o [3]
  .rodata            const    0x08027570     0x18  gserver.o [3]
  .rodata            const    0x08027588     0x18  gserver.o [3]
  .rodata            const    0x080275a0     0x18  gserver.o [3]
  .rodata            const    0x080275b8     0x18  gserver.o [3]
  .rodata            const    0x080275d0     0x18  gserver.o [3]
  .rodata            const    0x080275e8     0x18  gserver.o [3]
  .rodata            const    0x08027600     0x18  gserver.o [3]
  .rodata            const    0x08027618     0x18  gserver.o [3]
  .rodata            const    0x08027630     0x18  gserver.o [3]
  .rodata            const    0x08027648     0x18  gserver.o [3]
  .rodata            const    0x08027660     0x18  gserver.o [3]
  .rodata            const    0x08027678     0x18  gserver.o [3]
  .rodata            const    0x08027690     0x18  gserver.o [3]
  .rodata            const    0x080276a8     0x18  gserver.o [3]
  .rodata            const    0x080276c0     0x18  httpgat.o [3]
  .rodata            const    0x080276d8     0x18  httpgat.o [3]
  .rodata            const    0x080276f0     0x18  httpgat.o [3]
  .rodata            const    0x08027708     0x18  httpgat.o [3]
  .rodata            const    0x08027720     0x18  httpgat.o [3]
  .rodata            const    0x08027738     0x18  gatm2m.o [3]
  .rodata            const    0x08027750     0x18  gatm2m.o [3]
  .rodata            const    0x08027768     0x18  gatm2m.o [3]
  .rodata            const    0x08027780     0x18  gatm2m.o [3]
  .rodata            const    0x08027798     0x18  gatm2m.o [3]
  .rodata            const    0x080277b0     0x18  gatm2m.o [3]
  .rodata            const    0x080277c8     0x18  otawan.o [3]
  .rodata            const    0x080277e0     0x18  otawan.o [3]
  .rodata            const    0x080277f8     0x18  otawan.o [3]
  .rodata            const    0x08027810     0x18  otawan.o [3]
  .rodata            const    0x08027828     0x18  otawan.o [3]
  .rodata            const    0x08027840     0x18  otawan.o [3]
  .rodata            const    0x08027858     0x18  otawan.o [3]
  .rodata            const    0x08027870     0x18  otawan.o [3]
  .rodata            const    0x08027888     0x18  mqttlib.o [3]
  .rodata            const    0x080278a0     0x18  mqttlib.o [3]
  .rodata            const    0x080278b8     0x18  mqttlib.o [3]
  .rodata            const    0x080278d0     0x18  mqttlib.o [3]
  .rodata            const    0x080278e8     0x18  env.o [3]
  .rodata            const    0x08027900     0x18  env.o [3]
  .text              ro code  0x08027918     0x16  xprout.o [4]
  .text              ro code  0x08027930      0xc  putchar.o [4]
  .rodata            const    0x0802793c     0x14  es_wifi.o [1]
  .rodata            const    0x08027950     0x14  es_wifi.o [1]
  .rodata            const    0x08027964     0x14  gagent_iot_test_basic_connectivity.o [1]
  .rodata            const    0x08027978     0x14  gagent_iot_test_basic_connectivity.o [1]
  .rodata            const    0x0802798c     0x14  ioffile.o [1]
  .rodata            const    0x080279a0     0x14  iofnet.o [1]
  .rodata            const    0x080279b4     0x14  iofnet.o [1]
  .rodata            const    0x080279c8     0x14  iofnet.o [1]
  .rodata            const    0x080279dc     0x14  iofpthread.o [1]
  .rodata            const    0x080279f0     0x14  iofpthread.o [1]
  .rodata            const    0x08027a04     0x14  iofpthread.o [1]
  .rodata            const    0x08027a18     0x14  iofpthread.o [1]
  .rodata            const    0x08027a2c     0x14  iofsocket.o [1]
  .rodata            const    0x08027a40     0x14  iofsocket.o [1]
  .rodata            const    0x08027a54     0x14  ioftime.o [1]
  .rodata            const    0x08027a68     0x14  ioftime.o [1]
  .rodata            const    0x08027a7c     0x14  ioftime.o [1]
  .rodata            const    0x08027a90     0x14  iot_flash_config.o [1]
  .rodata            const    0x08027aa4     0x14  main.o [1]
  .rodata            const    0x08027ab8     0x14  semaph.o [1]
  .rodata            const    0x08027acc     0x14  sensors_data.o [1]
  .rodata            const    0x08027ae0     0x14  timedate.o [1]
  .rodata            const    0x08027af4     0x14  local.o [3]
  .rodata            const    0x08027b08     0x14  local.o [3]
  .rodata            const    0x08027b1c     0x14  gagent.o [3]
  .rodata            const    0x08027b30     0x14  gagent.o [3]
  .rodata            const    0x08027b44     0x14  gagent.o [3]
  .rodata            const    0x08027b58     0x14  gagent.o [3]
  .rodata            const    0x08027b6c     0x14  gagent.o [3]
  .rodata            const    0x08027b80     0x14  gagent.o [3]
  .rodata            const    0x08027b94     0x14  gagent.o [3]
  .rodata            const    0x08027ba8     0x14  gagent.o [3]
  .rodata            const    0x08027bbc     0x14  productinfo.o [3]
  .rodata            const    0x08027bd0     0x14  productinfo.o [3]
  .rodata            const    0x08027be4     0x14  productinfo.o [3]
  .rodata            const    0x08027bf8     0x14  productinfo.o [3]
  .rodata            const    0x08027c0c     0x14  productinfo.o [3]
  .rodata            const    0x08027c20     0x14  productinfo.o [3]
  .rodata            const    0x08027c34     0x14  gatnet.o [3]
  .rodata            const    0x08027c48     0x14  gatnet.o [3]
  .rodata            const    0x08027c5c     0x14  gatnet.o [3]
  .rodata            const    0x08027c70     0x14  nwk_manage.o [3]
  .rodata            const    0x08027c84     0x14  nwk_manage.o [3]
  .rodata            const    0x08027c98     0x14  nwk_manage.o [3]
  .rodata            const    0x08027cac     0x14  localio.o [3]
  .rodata            const    0x08027cc0     0x14  localio.o [3]
  .rodata            const    0x08027cd4     0x14  localio.o [3]
  .rodata            const    0x08027ce8     0x14  localio.o [3]
  .rodata            const    0x08027cfc     0x14  tcp.o [3]
  .rodata            const    0x08027d10     0x14  tcp.o [3]
  .rodata            const    0x08027d24     0x14  tcp.o [3]
  .rodata            const    0x08027d38     0x14  tcp.o [3]
  .rodata            const    0x08027d4c     0x14  tcp.o [3]
  .rodata            const    0x08027d60     0x14  timer_subsystem.o [3]
  .rodata            const    0x08027d74     0x14  timer_subsystem.o [3]
  .rodata            const    0x08027d88     0x14  simulatorcomm.o [3]
  .rodata            const    0x08027d9c     0x14  simulatorcomm.o [3]
  .rodata            const    0x08027db0     0x14  authorization.o [3]
  .rodata            const    0x08027dc4     0x14  authorization.o [3]
  .rodata            const    0x08027dd8     0x14  localcomm.o [3]
  .rodata            const    0x08027dec     0x14  localcomm.o [3]
  .rodata            const    0x08027e00     0x14  localcomm.o [3]
  .rodata            const    0x08027e14     0x14  localcomm.o [3]
  .rodata            const    0x08027e28     0x14  localcomm.o [3]
  .rodata            const    0x08027e3c     0x14  localcomm.o [3]
  .rodata            const    0x08027e50     0x14  mqttgat.o [3]
  .rodata            const    0x08027e64     0x14  mqttgat.o [3]
  .rodata            const    0x08027e78     0x14  mqttgat.o [3]
  .rodata            const    0x08027e8c     0x14  mqttgat.o [3]
  .rodata            const    0x08027ea0     0x14  mqttgat.o [3]
  .rodata            const    0x08027eb4     0x14  mqttgat.o [3]
  .rodata            const    0x08027ec8     0x14  mqttgat.o [3]
  .rodata            const    0x08027edc     0x14  mqttgat.o [3]
  .rodata            const    0x08027ef0     0x14  mqttgat.o [3]
  .rodata            const    0x08027f04     0x14  gdns.o [3]
  .rodata            const    0x08027f18     0x14  gdns.o [3]
  .rodata            const    0x08027f2c     0x14  gdns.o [3]
  .rodata            const    0x08027f40     0x14  gserver.o [3]
  .rodata            const    0x08027f54     0x14  gserver.o [3]
  .rodata            const    0x08027f68     0x14  gserver.o [3]
  .rodata            const    0x08027f7c     0x14  gserver.o [3]
  .rodata            const    0x08027f90     0x14  gserver.o [3]
  .rodata            const    0x08027fa4     0x14  gserver.o [3]
  .rodata            const    0x08027fb8     0x14  gserver.o [3]
  .rodata            const    0x08027fcc     0x14  gserver.o [3]
  .rodata            const    0x08027fe0     0x14  gserver.o [3]
  .rodata            const    0x08027ff4     0x14  gserver.o [3]
  .rodata            const    0x08028008     0x14  gserver.o [3]
  .rodata            const    0x0802801c     0x14  httpgat.o [3]
  .rodata            const    0x08028030     0x14  httpgat.o [3]
  .rodata            const    0x08028044     0x14  httpgat.o [3]
  .rodata            const    0x08028058     0x14  gatm2m.o [3]
  .rodata            const    0x0802806c     0x14  gatm2m.o [3]
  .rodata            const    0x08028080     0x14  gatm2m.o [3]
  .rodata            const    0x08028094     0x14  gatm2m.o [3]
  .rodata            const    0x080280a8     0x14  gatm2m.o [3]
  .rodata            const    0x080280bc     0x14  gatm2m.o [3]
  .rodata            const    0x080280d0     0x14  gatm2m.o [3]
  .rodata            const    0x080280e4     0x14  gatm2m.o [3]
  .rodata            const    0x080280f8     0x14  gatm2m.o [3]
  .rodata            const    0x0802810c     0x14  gatm2m.o [3]
  .rodata            const    0x08028120     0x14  gatm2m.o [3]
  .rodata            const    0x08028134     0x14  gatm2m.o [3]
  .rodata            const    0x08028148     0x14  gatm2m.o [3]
  .rodata            const    0x0802815c     0x14  gatm2m.o [3]
  .rodata            const    0x08028170     0x14  gatm2m.o [3]
  .rodata            const    0x08028184     0x14  gatm2m.o [3]
  .rodata            const    0x08028198     0x14  otawan.o [3]
  .rodata            const    0x080281ac     0x14  otawan.o [3]
  .rodata            const    0x080281c0     0x14  otawan.o [3]
  .rodata            const    0x080281d4     0x14  otawan.o [3]
  .rodata            const    0x080281e8     0x14  otawan.o [3]
  .rodata            const    0x080281fc     0x14  otawan.o [3]
  .rodata            const    0x08028210     0x14  otawan.o [3]
  .rodata            const    0x08028224     0x14  otawan.o [3]
  .rodata            const    0x08028238     0x14  otawan.o [3]
  .rodata            const    0x0802824c     0x14  otawan.o [3]
  .rodata            const    0x08028260     0x14  otawan.o [3]
  .rodata            const    0x08028274     0x14  otawan.o [3]
  .rodata            const    0x08028288     0x14  env.o [3]
  .rodata            const    0x0802829c     0x10  es_wifi.o [1]
  .rodata            const    0x080282ac     0x10  gagent_iot_test_basic_connectivity.o [1]
  .rodata            const    0x080282bc     0x10  gagent_iot_test_basic_connectivity.o [1]
  .rodata            const    0x080282cc     0x10  iofdev.o [1]
  .rodata            const    0x080282dc     0x10  ioffile.o [1]
  .rodata            const    0x080282ec     0x10  iofnet.o [1]
  .rodata            const    0x080282fc     0x10  iofnet.o [1]
  .rodata            const    0x0802830c     0x10  iofnet.o [1]
  .rodata            const    0x0802831c     0x10  iofserial.o [1]
  .rodata            const    0x0802832c     0x10  iofserial.o [1]
  .rodata            const    0x0802833c     0x10  iot_flash_config.o [1]
  .rodata            const    0x0802834c     0x10  iot_flash_config.o [1]
  .rodata            const    0x0802835c     0x10  semaph.o [1]
  .rodata            const    0x0802836c     0x10  semaph.o [1]
  .rodata            const    0x0802837c     0x10  system_stm32l4xx.o [1]
  .rodata            const    0x0802838c     0x10  timedate.o [1]
  .rodata            const    0x0802839c     0x10  timedate.o [1]
  .rodata            const    0x080283ac     0x10  local.o [3]
  .rodata            const    0x080283bc     0x10  local.o [3]
  .rodata            const    0x080283cc     0x10  gagent.o [3]
  .rodata            const    0x080283dc     0x10  gagent.o [3]
  .rodata            const    0x080283ec     0x10  gagent.o [3]
  .rodata            const    0x080283fc     0x10  gagent.o [3]
  .rodata            const    0x0802840c     0x10  gagent.o [3]
  .rodata            const    0x0802841c     0x10  gagent.o [3]
  .rodata            const    0x0802842c     0x10  gagent.o [3]
  .rodata            const    0x0802843c     0x10  gagent.o [3]
  .rodata            const    0x0802844c     0x10  gagent.o [3]
  .rodata            const    0x0802845c     0x10  productinfo.o [3]
  .rodata            const    0x0802846c     0x10  productinfo.o [3]
  .rodata            const    0x0802847c     0x10  productinfo.o [3]
  .rodata            const    0x0802848c     0x10  productinfo.o [3]
  .rodata            const    0x0802849c     0x10  gatnet.o [3]
  .rodata            const    0x080284ac     0x10  gatnet.o [3]
  .rodata            const    0x080284bc     0x10  gatnet.o [3]
  .rodata            const    0x080284cc     0x10  gatnet.o [3]
  .rodata            const    0x080284dc     0x10  gatnet.o [3]
  .rodata            const    0x080284ec     0x10  gatnet.o [3]
  .rodata            const    0x080284fc     0x10  gatnet.o [3]
  .rodata            const    0x0802850c     0x10  nwk_manage.o [3]
  .rodata            const    0x0802851c     0x10  localio.o [3]
  .rodata            const    0x0802852c     0x10  localio.o [3]
  .rodata            const    0x0802853c     0x10  localio.o [3]
  .rodata            const    0x0802854c     0x10  localio.o [3]
  .rodata            const    0x0802855c     0x10  tcp.o [3]
  .rodata            const    0x0802856c     0x10  tcp.o [3]
  .rodata            const    0x0802857c     0x10  tcp.o [3]
  .rodata            const    0x0802858c     0x10  tcp.o [3]
  .rodata            const    0x0802859c     0x10  timer_subsystem.o [3]
  .rodata            const    0x080285ac     0x10  gatutilcode.o [3]
  .rodata            const    0x080285bc     0x10  authorization.o [3]
  .rodata            const    0x080285cc     0x10  authorization.o [3]
  .rodata            const    0x080285dc     0x10  authorization.o [3]
  .rodata            const    0x080285ec     0x10  authorization.o [3]
  .rodata            const    0x080285fc     0x10  authorization.o [3]
  .rodata            const    0x0802860c     0x10  localcomm.o [3]
  .rodata            const    0x0802861c     0x10  localcomm.o [3]
  .rodata            const    0x0802862c     0x10  localcomm.o [3]
  .rodata            const    0x0802863c     0x10  localcomm.o [3]
  .rodata            const    0x0802864c     0x10  localcomm.o [3]
  .rodata            const    0x0802865c     0x10  localcomm.o [3]
  .rodata            const    0x0802866c     0x10  dp.o [3]
  .rodata            const    0x0802867c     0x10  mqttgat.o [3]
  .rodata            const    0x0802868c     0x10  mqttgat.o [3]
  .rodata            const    0x0802869c     0x10  mqttgat.o [3]
  .rodata            const    0x080286ac     0x10  mqttgat.o [3]
  .rodata            const    0x080286bc     0x10  mqttgat.o [3]
  .rodata            const    0x080286cc     0x10  gdns.o [3]
  .rodata            const    0x080286dc     0x10  gserver.o [3]
  .rodata            const    0x080286ec     0x10  gserver.o [3]
  .rodata            const    0x080286fc     0x10  gserver.o [3]
  .rodata            const    0x0802870c     0x10  gserver.o [3]
  .rodata            const    0x0802871c     0x10  gserver.o [3]
  .rodata            const    0x0802872c     0x10  gserver.o [3]
  .rodata            const    0x0802873c     0x10  httpgat.o [3]
  .rodata            const    0x0802874c     0x10  httpgat.o [3]
  .rodata            const    0x0802875c     0x10  httpgat.o [3]
  .rodata            const    0x0802876c     0x10  httpgat.o [3]
  .rodata            const    0x0802877c     0x10  httpgat.o [3]
  .rodata            const    0x0802878c     0x10  gatm2m.o [3]
  .rodata            const    0x0802879c     0x10  gatm2m.o [3]
  .rodata            const    0x080287ac     0x10  gatm2m.o [3]
  .rodata            const    0x080287bc     0x10  gatm2m.o [3]
  .rodata            const    0x080287cc     0x10  gatm2m.o [3]
  .rodata            const    0x080287dc     0x10  gatm2m.o [3]
  .rodata            const    0x080287ec     0x10  gatm2m.o [3]
  .rodata            const    0x080287fc     0x10  gatm2m.o [3]
  .rodata            const    0x0802880c     0x10  gatm2m.o [3]
  .rodata            const    0x0802881c     0x10  gatm2m.o [3]
  .rodata            const    0x0802882c     0x10  gatm2m.o [3]
  .rodata            const    0x0802883c     0x10  gatm2m.o [3]
  .rodata            const    0x0802884c     0x10  gatm2m.o [3]
  .rodata            const    0x0802885c     0x10  gatm2m.o [3]
  .rodata            const    0x0802886c     0x10  gatm2m.o [3]
  .rodata            const    0x0802887c     0x10  gatm2m.o [3]
  .rodata            const    0x0802888c     0x10  gatm2m.o [3]
  .rodata            const    0x0802889c     0x10  gatm2m.o [3]
  .rodata            const    0x080288ac     0x10  gatm2m.o [3]
  .rodata            const    0x080288bc     0x10  gatm2m.o [3]
  .rodata            const    0x080288cc     0x10  gatm2m.o [3]
  .rodata            const    0x080288dc     0x10  gatm2m.o [3]
  .rodata            const    0x080288ec     0x10  gatm2m.o [3]
  .rodata            const    0x080288fc     0x10  otawan.o [3]
  .rodata            const    0x0802890c     0x10  otawan.o [3]
  .rodata            const    0x0802891c     0x10  otawan.o [3]
  .rodata            const    0x0802892c     0x10  otawan.o [3]
  .rodata            const    0x0802893c     0x10  otawan.o [3]
  .rodata            const    0x0802894c     0x10  otawan.o [3]
  .rodata            const    0x0802895c     0x10  mqttlib.o [3]
  .rodata            const    0x0802896c     0x10  mqttlib.o [3]
  .rodata            const    0x0802897c     0x10  mqttlib.o [3]
  .text              ro code  0x0802898c     0x10  startup_stm32l475xx.o [1]
  .rodata            const    0x0802899c      0xc  es_wifi.o [1]
  .rodata            const    0x080289a8      0xc  es_wifi.o [1]
  .rodata            const    0x080289b4      0xc  gagent_iot_test_basic_connectivity.o [1]
  .rodata            const    0x080289c0      0xc  gagent_iot_test_basic_connectivity.o [1]
  .rodata            const    0x080289cc      0xc  gagent_iot_test_basic_connectivity.o [1]
  .rodata            const    0x080289d8      0xc  iofipc.o [1]
  .rodata            const    0x080289e4      0xc  iofipc.o [1]
  .rodata            const    0x080289f0      0xc  iofnet.o [1]
  .rodata            const    0x080289fc      0xc  iofnet.o [1]
  .rodata            const    0x08028a08      0xc  iofpthread.o [1]
  .rodata            const    0x08028a14      0xc  iofpthread.o [1]
  .rodata            const    0x08028a20      0xc  iofsocket.o [1]
  .rodata            const    0x08028a2c      0xc  ioftime.o [1]
  .rodata            const    0x08028a38      0xc  ioftime.o [1]
  .rodata            const    0x08028a44      0xc  semaph.o [1]
  .rodata            const    0x08028a50      0xc  local.o [3]
  .rodata            const    0x08028a5c      0xc  local.o [3]
  .rodata            const    0x08028a68      0xc  local.o [3]
  .rodata            const    0x08028a74      0xc  local.o [3]
  .rodata            const    0x08028a80      0xc  gagent.o [3]
  .rodata            const    0x08028a8c      0xc  gagent.o [3]
  .rodata            const    0x08028a98      0xc  gagent.o [3]
  .rodata            const    0x08028aa4      0xc  gagent.o [3]
  .rodata            const    0x08028ab0      0xc  gagent.o [3]
  .rodata            const    0x08028abc      0xc  gagent.o [3]
  .rodata            const    0x08028ac8      0xc  gagent.o [3]
  .rodata            const    0x08028ad4      0xc  productinfo.o [3]
  .rodata            const    0x08028ae0      0xc  productinfo.o [3]
  .rodata            const    0x08028aec      0xc  productinfo.o [3]
  .rodata            const    0x08028af8      0xc  productinfo.o [3]
  .rodata            const    0x08028b04      0xc  productinfo.o [3]
  .rodata            const    0x08028b10      0xc  productinfo.o [3]
  .rodata            const    0x08028b1c      0xc  productinfo.o [3]
  .rodata            const    0x08028b28      0xc  productinfo.o [3]
  .rodata            const    0x08028b34      0xc  gatnet.o [3]
  .rodata            const    0x08028b40      0xc  gatnet.o [3]
  .rodata            const    0x08028b4c      0xc  nwk_manage.o [3]
  .rodata            const    0x08028b58      0xc  tcp.o [3]
  .rodata            const    0x08028b64      0xc  tcp.o [3]
  .rodata            const    0x08028b70      0xc  timer_subsystem.o [3]
  .rodata            const    0x08028b7c      0xc  simulatorcomm.o [3]
  .rodata            const    0x08028b88      0xc  authorization.o [3]
  .rodata            const    0x08028b94      0xc  authorization.o [3]
  .rodata            const    0x08028ba0      0xc  authorization.o [3]
  .rodata            const    0x08028bac      0xc  localcomm.o [3]
  .rodata            const    0x08028bb8      0xc  localcomm.o [3]
  .rodata            const    0x08028bc4      0xc  localcomm.o [3]
  .rodata            const    0x08028bd0      0xc  localcomm.o [3]
  .rodata            const    0x08028bdc      0xc  localcomm.o [3]
  .rodata            const    0x08028be8      0xc  localcomm.o [3]
  .rodata            const    0x08028bf4      0xc  dp.o [3]
  .rodata            const    0x08028c00      0xc  dp.o [3]
  .rodata            const    0x08028c0c      0xc  dp.o [3]
  .rodata            const    0x08028c18      0xc  localprotocol.o [3]
  .rodata            const    0x08028c24      0xc  localprotocol.o [3]
  .rodata            const    0x08028c30      0xc  mqttgat.o [3]
  .rodata            const    0x08028c3c      0xc  gdns.o [3]
  .rodata            const    0x08028c48      0xc  gdns.o [3]
  .rodata            const    0x08028c54      0xc  gdns.o [3]
  .rodata            const    0x08028c60      0xc  gserver.o [3]
  .rodata            const    0x08028c6c      0xc  gserver.o [3]
  .rodata            const    0x08028c78      0xc  gserver.o [3]
  .rodata            const    0x08028c84      0xc  gserver.o [3]
  .rodata            const    0x08028c90      0xc  gserver.o [3]
  .rodata            const    0x08028c9c      0xc  gserver.o [3]
  .rodata            const    0x08028ca8      0xc  gserver.o [3]
  .rodata            const    0x08028cb4      0xc  gserver.o [3]
  .rodata            const    0x08028cc0      0xc  gserver.o [3]
  .rodata            const    0x08028ccc      0xc  gserver.o [3]
  .rodata            const    0x08028cd8      0xc  httpgat.o [3]
  .rodata            const    0x08028ce4      0xc  httpgat.o [3]
  .rodata            const    0x08028cf0      0xc  httpgat.o [3]
  .rodata            const    0x08028cfc      0xc  httpgat.o [3]
  .rodata            const    0x08028d08      0xc  lanvirtual.o [3]
  .rodata            const    0x08028d14      0xc  gatm2m.o [3]
  .rodata            const    0x08028d20      0xc  gatm2m.o [3]
  .rodata            const    0x08028d2c      0xc  gatm2m.o [3]
  .rodata            const    0x08028d38      0xc  gatm2m.o [3]
  .rodata            const    0x08028d44      0xc  gatm2m.o [3]
  .rodata            const    0x08028d50      0xc  gatm2m.o [3]
  .rodata            const    0x08028d5c      0xc  otawan.o [3]
  .rodata            const    0x08028d68      0xc  otawan.o [3]
  .rodata            const    0x08028d74      0xc  otawan.o [3]
  .rodata            const    0x08028d80      0xc  otawan.o [3]
  .rodata            const    0x08028d8c      0xc  mqttlib.o [3]
  .rodata            const    0x08028d98      0xc  env.o [3]
  .rodata            const    0x08028da4      0xc  env.o [3]
  .rodata            const    0x08028db0      0xc  env.o [3]
  .text              ro code  0x08028dbc      0xc  cstartup_M.o [6]
  .rodata            const    0x08028dc8      0x8  es_wifi.o [1]
  .rodata            const    0x08028dd0      0x8  es_wifi.o [1]
  .rodata            const    0x08028dd8      0x8  es_wifi.o [1]
  .rodata            const    0x08028de0      0x8  es_wifi.o [1]
  .rodata            const    0x08028de8      0x8  es_wifi.o [1]
  .rodata            const    0x08028df0      0x8  es_wifi.o [1]
  .rodata            const    0x08028df8      0x8  es_wifi.o [1]
  .rodata            const    0x08028e00      0x8  es_wifi.o [1]
  .rodata            const    0x08028e08      0x8  es_wifi.o [1]
  .rodata            const    0x08028e10      0x8  es_wifi.o [1]
  .rodata            const    0x08028e18      0x8  es_wifi.o [1]
  .rodata            const    0x08028e20      0x8  es_wifi.o [1]
  .rodata            const    0x08028e28      0x8  es_wifi.o [1]
  .rodata            const    0x08028e30      0x8  es_wifi.o [1]
  .rodata            const    0x08028e38      0x8  es_wifi.o [1]
  .rodata            const    0x08028e40      0x8  es_wifi.o [1]
  .rodata            const    0x08028e48      0x8  es_wifi.o [1]
  .rodata            const    0x08028e50      0x8  es_wifi.o [1]
  .rodata            const    0x08028e58      0x8  iofipc.o [1]
  .rodata            const    0x08028e60      0x8  iofipc.o [1]
  .rodata            const    0x08028e68      0x8  iofipc.o [1]
  .rodata            const    0x08028e70      0x8  iofnet.o [1]
  .rodata            const    0x08028e78      0x8  iofpthread.o [1]
  .rodata            const    0x08028e80      0x8  iofpthread.o [1]
  .rodata            const    0x08028e88      0x8  iofserial.o [1]
  .rodata            const    0x08028e90      0x8  iofserial.o [1]
  .rodata            const    0x08028e98      0x8  ioftime.o [1]
  .rodata            const    0x08028ea0      0x8  main.o [1]
  .rodata            const    0x08028ea8      0x8  network.o [1]
  .rodata            const    0x08028eb0      0x8  sensors_data.o [1]
  .rodata            const    0x08028eb8      0x8  sensors_data.o [1]
  .rodata            const    0x08028ec0      0x8  system_stm32l4xx.o [1]
  .rodata            const    0x08028ec8      0x8  tasks.o [1]
  .rodata            const    0x08028ed0      0x8  timedate.o [1]
  .rodata            const    0x08028ed8      0x8  timedate.o [1]
  .rodata            const    0x08028ee0      0x8  timedate.o [1]
  .rodata            const    0x08028ee8      0x8  timedate.o [1]
  .rodata            const    0x08028ef0      0x8  timedate.o [1]
  .rodata            const    0x08028ef8      0x8  timedate.o [1]
  .rodata            const    0x08028f00      0x8  timedate.o [1]
  .rodata            const    0x08028f08      0x8  timedate.o [1]
  .rodata            const    0x08028f10      0x8  timers.o [1]
  .rodata            const    0x08028f18      0x8  timers.o [1]
  .rodata            const    0x08028f20      0x8  local.o [3]
  .rodata            const    0x08028f28      0x8  local.o [3]
  .rodata            const    0x08028f30      0x8  local.o [3]
  .rodata            const    0x08028f38      0x8  local.o [3]
  .rodata            const    0x08028f40      0x8  local.o [3]
  .rodata            const    0x08028f48      0x8  local.o [3]
  .rodata            const    0x08028f50      0x8  local.o [3]
  .rodata            const    0x08028f58      0x8  local.o [3]
  .rodata            const    0x08028f60      0x8  local.o [3]
  .rodata            const    0x08028f68      0x8  gagent.o [3]
  .rodata            const    0x08028f70      0x8  gagent.o [3]
  .rodata            const    0x08028f78      0x8  gagent.o [3]
  .rodata            const    0x08028f80      0x8  gagent.o [3]
  .rodata            const    0x08028f88      0x8  productinfo.o [3]
  .rodata            const    0x08028f90      0x8  productinfo.o [3]
  .rodata            const    0x08028f98      0x8  productinfo.o [3]
  .rodata            const    0x08028fa0      0x8  productinfo.o [3]
  .rodata            const    0x08028fa8      0x8  productinfo.o [3]
  .rodata            const    0x08028fb0      0x8  productinfo.o [3]
  .rodata            const    0x08028fb8      0x8  productinfo.o [3]
  .rodata            const    0x08028fc0      0x8  productinfo.o [3]
  .rodata            const    0x08028fc8      0x8  productinfo.o [3]
  .rodata            const    0x08028fd0      0x8  gatnet.o [3]
  .rodata            const    0x08028fd8      0x8  localio.o [3]
  .rodata            const    0x08028fe0      0x8  localio.o [3]
  .rodata            const    0x08028fe8      0x8  localio.o [3]
  .rodata            const    0x08028ff0      0x8  localio.o [3]
  .rodata            const    0x08028ff8      0x8  tcp.o [3]
  .rodata            const    0x08029000      0x8  tcp.o [3]
  .rodata            const    0x08029008      0x8  timer_subsystem.o [3]
  .rodata            const    0x08029010      0x8  simulatorcomm.o [3]
  .rodata            const    0x08029018      0x8  simulatorcomm.o [3]
  .rodata            const    0x08029020      0x8  gatutilcode.o [3]
  .rodata            const    0x08029028      0x8  gatutilcode.o [3]
  .rodata            const    0x08029030      0x8  authorization.o [3]
  .rodata            const    0x08029038      0x8  authorization.o [3]
  .rodata            const    0x08029040      0x8  localcomm.o [3]
  .rodata            const    0x08029048      0x8  localcomm.o [3]
  .rodata            const    0x08029050      0x8  localcomm.o [3]
  .rodata            const    0x08029058      0x8  dp.o [3]
  .rodata            const    0x08029060      0x8  localprotocol.o [3]
  .rodata            const    0x08029068      0x8  localprotocol.o [3]
  .rodata            const    0x08029070      0x8  gdns.o [3]
  .rodata            const    0x08029078      0x8  gdns.o [3]
  .rodata            const    0x08029080      0x8  gdns.o [3]
  .rodata            const    0x08029088      0x8  gserver.o [3]
  .rodata            const    0x08029090      0x8  gserver.o [3]
  .rodata            const    0x08029098      0x8  gserver.o [3]
  .rodata            const    0x080290a0      0x8  gserver.o [3]
  .rodata            const    0x080290a8      0x8  gserver.o [3]
  .rodata            const    0x080290b0      0x8  gserver.o [3]
  .rodata            const    0x080290b8      0x8  gserver.o [3]
  .rodata            const    0x080290c0      0x8  gserver.o [3]
  .rodata            const    0x080290c8      0x8  gserver.o [3]
  .rodata            const    0x080290d0      0x8  gserver.o [3]
  .rodata            const    0x080290d8      0x8  gserver.o [3]
  .rodata            const    0x080290e0      0x8  gserver.o [3]
  .rodata            const    0x080290e8      0x8  gserver.o [3]
  .rodata            const    0x080290f0      0x8  gserver.o [3]
  .rodata            const    0x080290f8      0x8  gserver.o [3]
  .rodata            const    0x08029100      0x8  gserver.o [3]
  .rodata            const    0x08029108      0x8  httpgat.o [3]
  .rodata            const    0x08029110      0x8  httpgat.o [3]
  .rodata            const    0x08029118      0x8  gatm2m.o [3]
  .rodata            const    0x08029120      0x8  gatm2m.o [3]
  .rodata            const    0x08029128      0x8  gatm2m.o [3]
  .rodata            const    0x08029130      0x8  gatm2m.o [3]
  .rodata            const    0x08029138      0x8  gatm2m.o [3]
  .rodata            const    0x08029140      0x8  gatm2m.o [3]
  .rodata            const    0x08029148      0x8  gatm2m.o [3]
  .rodata            const    0x08029150      0x8  otawan.o [3]
  .rodata            const    0x08029158      0x8  otawan.o [3]
  .rodata            const    0x08029160      0x8  otawan.o [3]
  .rodata            const    0x08029168      0x8  otawan.o [3]
  .rodata            const    0x08029170      0x8  otawan.o [3]
  .rodata            const    0x08029178      0x8  otawan.o [3]
  .rodata            const    0x08029180      0x8  otawan.o [3]
  .rodata            const    0x08029188      0x8  otawan.o [3]
  .rodata            const    0x08029190      0x8  mqttlib.o [3]
  .rodata            const    0x08029198      0x8  mqttlib.o [3]
  .rodata            const    0x080291a0      0x8  mqttlib.o [3]
  .rodata            const    0x080291a8      0x8  env.o [3]
  .rodata            const    0x080291b0      0x8  env.o [3]
  .rodata            const    0x080291b8      0x6  xlocale_c.o [4]
  .rodata            const    0x080291c0      0x4  es_wifi_io.o [1]
  .rodata            const    0x080291c4      0x4  es_wifi_io.o [1]
  .rodata            const    0x080291c8      0x4  es_wifi_io.o [1]
  .rodata            const    0x080291cc      0x4  es_wifi_io.o [1]
  .rodata            const    0x080291d0      0x4  es_wifi_io.o [1]
  .rodata            const    0x080291d4      0x4  gagent_iot_test_basic_connectivity.o [1]
  .rodata            const    0x080291d8      0x4  gagent_iot_test_basic_connectivity.o [1]
  .rodata            const    0x080291dc      0x4  heap_4.o [1]
  .rodata            const    0x080291e0      0x4  iofipc.o [1]
  .rodata            const    0x080291e4      0x4  iofserial.o [1]
  .rodata            const    0x080291e8      0x4  iofsocket.o [1]
  .rodata            const    0x080291ec      0x4  ioftime.o [1]
  .rodata            const    0x080291f0      0x4  main.o [1]
  .rodata            const    0x080291f4      0x4  port.o [1]
  .rodata            const    0x080291f8      0x4  stm32l475e_iot01.o [1]
  .rodata            const    0x080291fc      0x4  aes.o [3]
  .rodata            const    0x08029200      0x4  aes.o [3]
  .text              ro code  0x08029204      0x4  startup_stm32l475xx.o [1]
  .text              ro code  0x08029208      0x4  startup_stm32l475xx.o [1]
  .text              ro code  0x0802920c      0x4  startup_stm32l475xx.o [1]
  .text              ro code  0x08029210      0x4  startup_stm32l475xx.o [1]
  .text              ro code  0x08029214      0x4  startup_stm32l475xx.o [1]
  .text              ro code  0x08029218      0x4  startup_stm32l475xx.o [1]
  .text              ro code  0x0802921c      0x4  startup_stm32l475xx.o [1]
  .text              ro code  0x08029220      0x4  startup_stm32l475xx.o [1]
  .text              ro code  0x08029224      0x4  startup_stm32l475xx.o [1]
  .text              ro code  0x08029228      0x4  startup_stm32l475xx.o [1]
  .text              ro code  0x0802922c      0x4  startup_stm32l475xx.o [1]
  .text              ro code  0x08029230      0x4  startup_stm32l475xx.o [1]
  .text              ro code  0x08029234      0x4  startup_stm32l475xx.o [1]
  .text              ro code  0x08029238      0x4  startup_stm32l475xx.o [1]
  .text              ro code  0x0802923c      0x4  startup_stm32l475xx.o [1]
  .text              ro code  0x08029240      0x4  startup_stm32l475xx.o [1]
  .text              ro code  0x08029244      0x4  startup_stm32l475xx.o [1]
  .text              ro code  0x08029248      0x4  startup_stm32l475xx.o [1]
  .text              ro code  0x0802924c      0x4  startup_stm32l475xx.o [1]
  .text              ro code  0x08029250      0x4  startup_stm32l475xx.o [1]
  .text              ro code  0x08029254      0x4  startup_stm32l475xx.o [1]
  .text              ro code  0x08029258      0x4  startup_stm32l475xx.o [1]
  .text              ro code  0x0802925c      0x4  startup_stm32l475xx.o [1]
  .text              ro code  0x08029260      0x4  startup_stm32l475xx.o [1]
  .text              ro code  0x08029264      0x4  startup_stm32l475xx.o [1]
  .text              ro code  0x08029268      0x4  startup_stm32l475xx.o [1]
  .text              ro code  0x0802926c      0x4  startup_stm32l475xx.o [1]
  .text              ro code  0x08029270      0x4  startup_stm32l475xx.o [1]
  .text              ro code  0x08029274      0x4  startup_stm32l475xx.o [1]
  .text              ro code  0x08029278      0x4  startup_stm32l475xx.o [1]
  .text              ro code  0x0802927c      0x4  startup_stm32l475xx.o [1]
  .text              ro code  0x08029280      0x4  startup_stm32l475xx.o [1]
  .text              ro code  0x08029284      0x4  startup_stm32l475xx.o [1]
  .text              ro code  0x08029288      0x4  startup_stm32l475xx.o [1]
  .text              ro code  0x0802928c      0x4  startup_stm32l475xx.o [1]
  .text              ro code  0x08029290      0x4  startup_stm32l475xx.o [1]
  .text              ro code  0x08029294      0x4  startup_stm32l475xx.o [1]
  .text              ro code  0x08029298      0x4  startup_stm32l475xx.o [1]
  .text              ro code  0x0802929c      0x4  startup_stm32l475xx.o [1]
  .text              ro code  0x080292a0      0x4  startup_stm32l475xx.o [1]
  .text              ro code  0x080292a4      0x4  startup_stm32l475xx.o [1]
  .text              ro code  0x080292a8      0x4  startup_stm32l475xx.o [1]
  .text              ro code  0x080292ac      0x4  startup_stm32l475xx.o [1]
  .text              ro code  0x080292b0      0x4  startup_stm32l475xx.o [1]
  .text              ro code  0x080292b4      0x4  startup_stm32l475xx.o [1]
  .text              ro code  0x080292b8      0x4  startup_stm32l475xx.o [1]
  .text              ro code  0x080292bc      0x4  startup_stm32l475xx.o [1]
  .text              ro code  0x080292c0      0x4  startup_stm32l475xx.o [1]
  .text              ro code  0x080292c4      0x4  startup_stm32l475xx.o [1]
  .text              ro code  0x080292c8      0x4  startup_stm32l475xx.o [1]
  .text              ro code  0x080292cc      0x4  startup_stm32l475xx.o [1]
  .text              ro code  0x080292d0      0x4  startup_stm32l475xx.o [1]
  .text              ro code  0x080292d4      0x4  startup_stm32l475xx.o [1]
  .text              ro code  0x080292d8      0x4  startup_stm32l475xx.o [1]
  .text              ro code  0x080292dc      0x4  startup_stm32l475xx.o [1]
  .text              ro code  0x080292e0      0x4  startup_stm32l475xx.o [1]
  .text              ro code  0x080292e4      0x4  startup_stm32l475xx.o [1]
  .text              ro code  0x080292e8      0x4  startup_stm32l475xx.o [1]
  .text              ro code  0x080292ec      0x4  startup_stm32l475xx.o [1]
  .text              ro code  0x080292f0      0x4  startup_stm32l475xx.o [1]
  .text              ro code  0x080292f4      0x4  startup_stm32l475xx.o [1]
  .text              ro code  0x080292f8      0x4  startup_stm32l475xx.o [1]
  .text              ro code  0x080292fc      0x4  startup_stm32l475xx.o [1]
  .text              ro code  0x08029300      0x4  startup_stm32l475xx.o [1]
  .text              ro code  0x08029304      0x4  startup_stm32l475xx.o [1]
  .text              ro code  0x08029308      0x4  startup_stm32l475xx.o [1]
  .text              ro code  0x0802930c      0x4  startup_stm32l475xx.o [1]
  .text              ro code  0x08029310      0x4  startup_stm32l475xx.o [1]
  .text              ro code  0x08029314      0x4  startup_stm32l475xx.o [1]
  .text              ro code  0x08029318      0x4  startup_stm32l475xx.o [1]
  .text              ro code  0x0802931c      0x4  startup_stm32l475xx.o [1]
  .text              ro code  0x08029320      0x4  startup_stm32l475xx.o [1]
  .text              ro code  0x08029324      0x4  startup_stm32l475xx.o [1]
  .text              ro code  0x08029328      0x4  startup_stm32l475xx.o [1]
  .text              ro code  0x0802932c      0x4  startup_stm32l475xx.o [1]
  .rodata            const    0x08029330      0x0  zero_init3.o [6]
  .rodata            const    0x08029330      0x0  lz77_init.o [6]
  Initializer bytes  const    0x08029330    0x26f  <for P2 s0>
                            - 0x0802959f  0x29417

"P3":                                       0x870
  UNINIT_FIXED_LOC   uninit   0x08064000    0x870  iot_flash_config.o [1]
                            - 0x08064870    0x870

"P2", part 1 of 3:                          0x5aa
  P2 s0                       0x20000000    0x5aa  <Init block>
    .data            inited   0x20000000    0x180  cmdtable.o [3]
    .data            inited   0x20000180     0xd8  productinfo.o [3]
    .data            inited   0x20000258     0xc0  cmdtable.o [3]
    .data            inited   0x20000318     0x9c  cmdtable.o [3]
    .data            inited   0x200003b4     0x48  xfiles.o [4]
    .data            inited   0x200003fc     0x48  xfiles.o [4]
    .data            inited   0x20000444     0x48  xlocale_c.o [4]
    .data            inited   0x2000048c     0x40  gagent_md5.o [3]
    .data            inited   0x200004cc     0x38  xlocale_c.o [4]
    .data            inited   0x20000504     0x34  lsm6dsl.o [1]
    .data            inited   0x20000538     0x18  cmdtable.o [3]
    .data            inited   0x20000550     0x10  hts221.o [1]
    .data            inited   0x20000560      0xc  hts221.o [1]
    .data            inited   0x2000056c      0x8  rand.o [4]
    .data            inited   0x20000574      0x4  port.o [1]
    .data            inited   0x20000578      0x4  stm32l475e_iot01.o [1]
    .data            inited   0x2000057c      0x4  stm32l475e_iot01.o [1]
    .data            inited   0x20000580      0x4  stm32l475e_iot01.o [1]
    .data            inited   0x20000584      0x4  stm32l475e_iot01.o [1]
    .data            inited   0x20000588      0x4  stm32l475e_iot01.o [1]
    .data            inited   0x2000058c      0x4  system_stm32l4xx.o [1]
    .data            inited   0x20000590      0x4  tcp.o [3]
    .data            inited   0x20000594      0x4  dp.o [3]
    .data            inited   0x20000598      0x4  mqttgat.o [3]
    .data            inited   0x2000059c      0x4  otawan.o [3]
    .data            inited   0x200005a0      0x4  aes.o [3]
    .data            inited   0x200005a4      0x1  ioftime.o [1]
    .data            inited   0x200005a5      0x1  sensors_data.o [1]
    .data            inited   0x200005a6      0x1  sensors_data.o [1]
    .data            inited   0x200005a7      0x1  tcp.o [3]
    .data            inited   0x200005a8      0x1  localprotocol.o [3]
    .data            inited   0x200005a9      0x1  otawan.o [3]
                            - 0x200005aa    0x5aa

"P2", part 2 of 3:                        0x149e8
  .bss               zero     0x200005ac  0x12000  heap_4.o [1]
  .bss               zero     0x200125ac   0x12d0  iofsocket.o [1]
  .bss               zero     0x2001387c    0x6a8  wifi.o [1]
  .bss               zero     0x20013f24    0x19c  otawan.o [3]
  .bss               zero     0x200140c0    0x13c  productinfo.o [3]
  .bss               zero     0x200141fc    0x108  gatm2m.o [3]
  .bss               zero     0x20014304    0x100  gatnet.o [3]
  .bss               zero     0x20014404     0xd8  gdns.o [3]
  .bss               zero     0x200144dc     0xc8  productinfo.o [3]
  .bss               zero     0x200145a4     0x8c  tasks.o [1]
  .bss               zero     0x20014630     0x84  rand.o [4]
  .bss               zero     0x200146b4     0x78  main.o [1]
  .bss               zero     0x2001472c     0x78  main.o [1]
  .bss               zero     0x200147a4     0x74  localcomm.o [3]
  .bss               zero     0x20014818     0x64  es_wifi_io.o [1]
  .bss               zero     0x2001487c     0x64  iofserial.o [1]
  .bss               zero     0x200148e0     0x58  otawan.o [3]
  .bss               zero     0x20014938     0x50  nwk_manage.o [3]
  .bss               zero     0x20014988     0x50  xfiles.o [4]
  .bss               zero     0x200149d8     0x4c  stm32l475e_iot01.o [1]
  .bss               zero     0x20014a24     0x40  queue.o [1]
  .bss               zero     0x20014a64     0x40  stm32l4xx_hal_timebase_tim.o [1]
  .bss               zero     0x20014aa4     0x34  localio.o [3]
  .bss               zero     0x20014ad8     0x30  simulatorcomm.o [3]
  .bss               zero     0x20014b08     0x2c  mqttgat.o [3]
  .bss               zero     0x20014b34     0x24  main.o [1]
  .bss               zero     0x20014b58     0x20  ioftime.o [1]
  .bss               zero     0x20014b78     0x20  stm32l4xx_hal_flash.o [1]
  .bss               zero     0x20014b98     0x1c  tcp.o [3]
  .bss               zero     0x20014bb4     0x18  gagent.o [3]
  .bss               zero     0x20014bcc     0x14  iofnet.o [1]
  .bss               zero     0x20014be0     0x14  tasks.o [1]
  .bss               zero     0x20014bf4     0x14  tasks.o [1]
  .bss               zero     0x20014c08     0x14  tasks.o [1]
  .bss               zero     0x20014c1c     0x14  tasks.o [1]
  .bss               zero     0x20014c30     0x14  tasks.o [1]
  .bss               zero     0x20014c44     0x14  timers.o [1]
  .bss               zero     0x20014c58     0x14  timers.o [1]
  .bss               zero     0x20014c6c     0x14  productinfo.o [3]
  .bss               zero     0x20014c80     0x14  localio.o [3]
  .bss               zero     0x20014c94     0x14  localio.o [3]
  .bss               zero     0x20014ca8     0x14  tcp.o [3]
  .bss               zero     0x20014cbc     0x14  tcp.o [3]
  .bss               zero     0x20014cd0     0x14  timer_subsystem.o [3]
  .bss               zero     0x20014ce4     0x14  httpgat.o [3]
  .bss               zero     0x20014cf8     0x14  httpgat.o [3]
  .bss               zero     0x20014d0c     0x10  main.o [1]
  .bss               zero     0x20014d1c     0x10  local.o [3]
  .bss               zero     0x20014d2c     0x10  gatnet.o [3]
  .bss               zero     0x20014d3c     0x10  gatnet.o [3]
  .bss               zero     0x20014d4c     0x10  authorization.o [3]
  .bss               zero     0x20014d5c     0x10  localcomm.o [3]
  .bss               zero     0x20014d6c     0x10  localcomm.o [3]
  .bss               zero     0x20014d7c     0x10  localcomm.o [3]
  .bss               zero     0x20014d8c     0x10  gdns.o [3]
  .bss               zero     0x20014d9c     0x10  gserver.o [3]
  .bss               zero     0x20014dac     0x10  gserver.o [3]
  .bss               zero     0x20014dbc     0x10  gserver.o [3]
  .bss               zero     0x20014dcc     0x10  otawan.o [3]
  .bss               zero     0x20014ddc     0x10  otawan.o [3]
  .bss               zero     0x20014dec      0xc  main.o [1]
  .bss               zero     0x20014df8      0xc  sensors_data.o [1]
  .bss               zero     0x20014e04      0xc  gagent.o [3]
  .bss               zero     0x20014e10      0x8  heap_4.o [1]
  .bss               zero     0x20014e18      0x8  iofnet.o [1]
  .bss               zero     0x20014e20      0x8  sensors_data.o [1]
  .bss               zero     0x20014e28      0x8  productinfo.o [3]
  .bss               zero     0x20014e30      0x8  productinfo.o [3]
  .bss               zero     0x20014e38      0x8  localio.o [3]
  .bss               zero     0x20014e40      0x8  mqttgat.o [3]
  .bss               zero     0x20014e48      0x4  es_wifi.o [1]
  .bss               zero     0x20014e4c      0x4  es_wifi_io.o [1]
  .bss               zero     0x20014e50      0x4  es_wifi_io.o [1]
  .bss               zero     0x20014e54      0x4  es_wifi_io.o [1]
  .bss               zero     0x20014e58      0x4  es_wifi_io.o [1]
  .bss               zero     0x20014e5c      0x4  es_wifi_io.o [1]
  .bss               zero     0x20014e60      0x4  es_wifi_io.o [1]
  .bss               zero     0x20014e64      0x4  es_wifi_io.o [1]
  .bss               zero     0x20014e68      0x4  es_wifi_io.o [1]
  .bss               zero     0x20014e6c      0x4  es_wifi_io.o [1]
  .bss               zero     0x20014e70      0x4  gagent_iot_test_basic_connectivity.o [1]
  .bss               zero     0x20014e74      0x4  gagent_iot_test_basic_connectivity.o [1]
  .bss               zero     0x20014e78      0x4  gagent_iot_test_basic_connectivity.o [1]
  .bss               zero     0x20014e7c      0x4  gagent_iot_test_basic_connectivity.o [1]
  .bss               zero     0x20014e80      0x4  gagent_iot_test_basic_connectivity.o [1]
  .bss               zero     0x20014e84      0x4  heap_4.o [1]
  .bss               zero     0x20014e88      0x4  heap_4.o [1]
  .bss               zero     0x20014e8c      0x4  heap_4.o [1]
  .bss               zero     0x20014e90      0x4  heap_4.o [1]
  .bss               zero     0x20014e94      0x4  iofipc.o [1]
  .bss               zero     0x20014e98      0x4  iofipc.o [1]
  .bss               zero     0x20014e9c      0x4  iofipc.o [1]
  .bss               zero     0x20014ea0      0x4  iofipc.o [1]
  .bss               zero     0x20014ea4      0x4  iofipc.o [1]
  .bss               zero     0x20014ea8      0x4  iofpthread.o [1]
  .bss               zero     0x20014eac      0x4  iofpthread.o [1]
  .bss               zero     0x20014eb0      0x4  iofserial.o [1]
  .bss               zero     0x20014eb4      0x4  iofserial.o [1]
  .bss               zero     0x20014eb8      0x4  iofsocket.o [1]
  .bss               zero     0x20014ebc      0x4  iofsocket.o [1]
  .bss               zero     0x20014ec0      0x4  iofsocket.o [1]
  .bss               zero     0x20014ec4      0x4  ioftime.o [1]
  .bss               zero     0x20014ec8      0x4  ioftime.o [1]
  .bss               zero     0x20014ecc      0x4  main.o [1]
  .bss               zero     0x20014ed0      0x4  port.o [1]
  .bss               zero     0x20014ed4      0x4  sensors_data.o [1]
  .bss               zero     0x20014ed8      0x4  sensors_data.o [1]
  .bss               zero     0x20014edc      0x4  stm32l475e_iot01_accelero.o [1]
  .bss               zero     0x20014ee0      0x4  stm32l475e_iot01_hsensor.o [1]
  .bss               zero     0x20014ee4      0x4  stm32l475e_iot01_tsensor.o [1]
  .bss               zero     0x20014ee8      0x4  stm32l4xx_hal.o [1]
  .bss               zero     0x20014eec      0x4  stm32l4xx_hal_timebase_tim.o [1]
  .bss               zero     0x20014ef0      0x4  stm32l4xx_it.o [1]
  .bss               zero     0x20014ef4      0x4  tasks.o [1]
  .bss               zero     0x20014ef8      0x4  tasks.o [1]
  .bss               zero     0x20014efc      0x4  tasks.o [1]
  .bss               zero     0x20014f00      0x4  tasks.o [1]
  .bss               zero     0x20014f04      0x4  tasks.o [1]
  .bss               zero     0x20014f08      0x4  tasks.o [1]
  .bss               zero     0x20014f0c      0x4  tasks.o [1]
  .bss               zero     0x20014f10      0x4  tasks.o [1]
  .bss               zero     0x20014f14      0x4  tasks.o [1]
  .bss               zero     0x20014f18      0x4  tasks.o [1]
  .bss               zero     0x20014f1c      0x4  tasks.o [1]
  .bss               zero     0x20014f20      0x4  tasks.o [1]
  .bss               zero     0x20014f24      0x4  tasks.o [1]
  .bss               zero     0x20014f28      0x4  tasks.o [1]
  .bss               zero     0x20014f2c      0x4  tasks.o [1]
  .bss               zero     0x20014f30      0x4  timers.o [1]
  .bss               zero     0x20014f34      0x4  timers.o [1]
  .bss               zero     0x20014f38      0x4  timers.o [1]
  .bss               zero     0x20014f3c      0x4  timers.o [1]
  .bss               zero     0x20014f40      0x4  timers.o [1]
  .bss               zero     0x20014f44      0x4  gagent.o [3]
  .bss               zero     0x20014f48      0x4  productinfo.o [3]
  .bss               zero     0x20014f4c      0x4  tcp.o [3]
  .bss               zero     0x20014f50      0x4  authorization.o [3]
  .bss               zero     0x20014f54      0x4  localcomm.o [3]
  .bss               zero     0x20014f58      0x4  httpgat.o [3]
  .bss               zero     0x20014f5c      0x4  otawan.o [3]
  .bss               zero     0x20014f60      0x4  aes.o [3]
  .bss               zero     0x20014f64      0x4  aes.o [3]
  .bss               zero     0x20014f68      0x4  strtok.o [4]
  .bss               zero     0x20014f6c      0x4  xfail_s.o [4]
  .tbss              zero     0x20014f70      0x4  errno.o [4]
  .bss               zero     0x20014f74      0x2  gagent_iot_test_basic_connectivity.o [1]
  .bss               zero     0x20014f76      0x2  iofserial.o [1]
  .bss               zero     0x20014f78      0x2  iofsocket.o [1]
  .bss               zero     0x20014f7a      0x2  semaph.o [1]
  .bss               zero     0x20014f7c      0x2  nwk_manage.o [3]
  .bss               zero     0x20014f7e      0x1  gagent_iot_test_basic_connectivity.o [1]
  .bss               zero     0x20014f7f      0x1  gagent_iot_test_basic_connectivity.o [1]
  .bss               zero     0x20014f80      0x1  ioffile.o [1]
  .bss               zero     0x20014f81      0x1  iofpthread.o [1]
  .bss               zero     0x20014f82      0x1  iofpthread.o [1]
  .bss               zero     0x20014f83      0x1  iofserial.o [1]
  .bss               zero     0x20014f84      0x1  iofsocket.o [1]
  .bss               zero     0x20014f85      0x1  iofsocket.o [1]
  .bss               zero     0x20014f86      0x1  iofsocket.o [1]
  .bss               zero     0x20014f87      0x1  iofsocket.o [1]
  .bss               zero     0x20014f88      0x1  main.o [1]
  .bss               zero     0x20014f89      0x1  port.o [1]
  .bss               zero     0x20014f8a      0x1  sensors_data.o [1]
  .bss               zero     0x20014f8b      0x1  sensors_data.o [1]
  .bss               zero     0x20014f8c      0x1  gatnet.o [3]
  .bss               zero     0x20014f8d      0x1  gatnet.o [3]
  .bss               zero     0x20014f8e      0x1  localcomm.o [3]
  .bss               zero     0x20014f8f      0x1  mqttgat.o [3]
  .bss               zero     0x20014f90      0x1  gserver.o [3]
  .bss               zero     0x20014f91      0x1  gserver.o [3]
  .bss               zero     0x20014f92      0x1  otawan.o [3]
                            - 0x20014f93  0x149e7

"P2", part 3 of 3:                         0x2000
  CSTACK                      0x20014f98   0x2000  <Block>
    CSTACK           uninit   0x20014f98   0x2000  <Block tail>
                            - 0x20016f98   0x2000


*******************************************************************************
*** INIT TABLE
***

          Address     Size
          -------     ----
Zero (__iar_zero_init3)
    1 destination range, total size 0x149e7:
          0x200005ac  0x149e7

Copy/lz77 (__iar_lz77_init3)
    1 source range, total size 0x26f (42% of destination):
          0x08029330    0x26f
    1 destination range, total size 0x5aa:
          0x20000000    0x5aa



*******************************************************************************
*** MODULE SUMMARY
***

    Module                                ro code  ro data  rw data
    ------                                -------  -------  -------
E:\work\work\gagent\working\ST\I-CUBE-GIZWITS\Projects\B-L475E-IOT01\Applications\Cloud\Gizwits\EWARM\B-L475E-IOT01\Obj: [1]
    cmsis_os.o                              1 604
    es_wifi.o                               3 424      528        4
    es_wifi_io.o                            1 768       20      136
    flash_l4.o                                892      288
    gagent_iot_test_basic_connectivity.o    1 148      760       24
    heap_4.o                                  632        4   73 752
    hts221.o                                  612       12       28
    iofdev.o                                  212       40
    ioffile.o                                 580      304        1
    iofipc.o                                  562      108       20
    iofnet.o                                1 048      508       28
    iofpthread.o                              280      120       10
    iofserial.o                               512      200      111
    iofsocket.o                             1 268      504    4 834
    ioftime.o                                 732      728       41
    iot_flash_config.o                        468    2 432
    list.o                                    154
    lsm6dsl.o                                 400       23       52
    main.o                                  1 020       32      309
    network.o                                 664      548
    port.o                                    600        6        9
    portasm.o                                 168
    queue.o                                 2 480                64
    semaph.o                                  208      112        2
    sensors_data.o                            424      165       32
    startup_stm32l475xx.o                     708
    stm32l475e_iot01.o                      1 176       25       96
    stm32l475e_iot01_accelero.o               152                 4
    stm32l475e_iot01_hsensor.o                 64                 4
    stm32l475e_iot01_tsensor.o                 56                 4
    stm32l4xx_hal.o                            84                 4
    stm32l4xx_hal_cortex.o                    292
    stm32l4xx_hal_dma.o                        88
    stm32l4xx_hal_flash.o                     796                32
    stm32l4xx_hal_flash_ex.o                2 176
    stm32l4xx_hal_gpio.o                      632
    stm32l4xx_hal_i2c.o                     2 164
    stm32l4xx_hal_i2c_ex.o                    100
    stm32l4xx_hal_iwdg.o                      112
    stm32l4xx_hal_msp.o                        76
    stm32l4xx_hal_pwr_ex.o                    168
    stm32l4xx_hal_rcc.o                     2 636
    stm32l4xx_hal_rcc_ex.o                  1 912
    stm32l4xx_hal_rng.o                        74
    stm32l4xx_hal_rtc.o                       976
    stm32l4xx_hal_spi.o                     3 776
    stm32l4xx_hal_tim.o                       710
    stm32l4xx_hal_tim_ex.o                      4
    stm32l4xx_hal_timebase_tim.o              184                68
    stm32l4xx_hal_uart.o                    3 186
    stm32l4xx_hal_uart_ex.o                     2
    stm32l4xx_it.o                            100                 4
    system_stm32l4xx.o                        108       73        4
    tasks.o                                 3 552        8      300
    timedate.o                                888      364
    timers.o                                1 232       16       60
    wifi.o                                    588             1 704
    ---------------------------------------------------------------
    Total:                                 50 632    7 928   81 741

command line: [2]
    ---------------------------------------------------------------
    Total:

Gagent_IAR.a: [3]
    aes.o                                   2 388       10       12
    aesdata.o                               3 092
    authorization.o                         1 612    1 104       20
    cmdtable.o                                         324      756
    dp.o                                      668      286        4
    env.o                                     644      496
    gagent.o                                4 264    3 284       40
    gagent_md5.o                            2 328       27       64
    gatlist.o                                  92
    gatm2m.o                                4 056    2 824      264
    gatnet.o                                1 772      884      290
    gatutilcode.o                           1 298      228
    gdns.o                                  1 572      852      232
    gserver.o                               6 692    4 424       50
    httpgat.o                               5 380    2 464       44
    lanvirtual.o                               44       56
    local.o                                 1 476      976       16
    localcomm.o                             1 640      836      169
    localio.o                               2 364    1 232      100
    localprotocol.o                         1 136      212        1
    mqttgat.o                               2 448    1 773       57
    mqttlib.o                               2 864      466
    nwk_manage.o                            1 736    1 524       82
    otawan.o                                4 084    2 591      542
    productinfo.o                           3 100    2 525      772
    simulatorcomm.o                         1 360    1 144       48
    tcp.o                                   3 156    1 699       77
    timer_subsystem.o                       1 096      824       20
    ---------------------------------------------------------------
    Total:                                 62 362   33 065    3 660

dl7M_tlf.a: [4]
    abort.o                                     6
    errno.o                                    40                 4
    exit.o                                      4
    getchar.o                                  12
    iar_Stoflt.o                              456
    iar_Stollx.o                              156
    iar_Stolx.o                               134
    iar_Stopfx.o                              290
    iar_Stoullx.o                             440
    iar_Stoulx.o                              376
    iar_Stoxflt.o                             540
    isalpha.o                                  20
    isspace.o                                  20
    low_level_init.o                            4
    printf.o                                   40
    putchar.o                                  12
    rand.o                                    176        3      140
    sprintf.o                                  64
    sscanf.o                                   40
    strcspn.o                                  34
    strncmp.o                                  40
    strspn.o                                   34
    strstr.o                                   48
    strtok.o                                   72                 4
    tolower.o                                  20
    tp_nothreads.o                              4
    wctob.o                                    60
    xencoding_8859_1.o                         38
    xfail_s.o                                  64                 4
    xfiles.o                                            62      224
    xlocale_c.o                               264       61      128
    xmbcurmax.o                                10
    xprintffull.o                           3 990
    xprout.o                                   22
    xscanffull.o                            3 816
    xsprout.o                                  10
    xsscin.o                                   30
    ---------------------------------------------------------------
    Total:                                 11 386      126      504

m7M_tls.a: [5]
    DblAdd.o                                  376
    DblCmpGe.o                                 46
    DblCmpLe.o                                 46
    DblDiv.o                                  582
    DblMul.o                                  418
    DblSub.o                                  226
    DblToFlt.o                                104
    DblToS32.o                                 58
    DblToU32.o                                 40
    S32ToDbl.o                                 34
    U32ToDbl.o                                 26
    fpinit_M.o                                 34
    frexp.o                                   112
    ldexp.o                                   314
    strto64.o                               1 432
    ---------------------------------------------------------------
    Total:                                  3 848

rt7M_tl.a: [6]
    ABImemclr4.o                                6
    ABImemcpy.o                               166
    ABImemset.o                               102
    ABImemset48.o                              50
    I64DivMod.o                               558
    I64DivZer.o                                 2
    cexit.o                                    10
    cmain.o                                    30
    cstartup_M.o                               12
    data_init.o                                40
    lz77_init.o                               498
    memchr.o                                   88
    memcmp.o                                  104
    strchr.o                                   22
    strcmp.o                                   74
    strcpy.o                                   76
    strlen.o                                   54
    strncpy.o                                 112
    zero_init3.o                               64
    ---------------------------------------------------------------
    Total:                                  2 068

shb_l.a: [7]
    exit.o                                     20
    ---------------------------------------------------------------
    Total:                                     20

    Gaps                                       50        6
    Linker created                                      44    8 192
-------------------------------------------------------------------
    Grand Total:                          130 366   41 169   94 097


*******************************************************************************
*** ENTRY LIST
***

Entry                      Address     Size  Type      Object
-----                      -------     ----  ----      ------
.iar.init_table$$Base   0x08025534            --   Gb  - Linker created -
.iar.init_table$$Limit  0x08025560            --   Gb  - Linker created -
?main                   0x080262e1           Code  Gb  cmain.o [6]
ACC_Value               0x20014e20      0x8  Data  Lc  sensors_data.o [1]
ADO_UART4_Init          0x08016a6b     0x58  Code  Lc  main.o [1]
AHBPrescTable           0x0802837c     0x10  Data  Gb  system_stm32l4xx.o [1]
APBPrescTable           0x08028ec0      0x8  Data  Gb  system_stm32l4xx.o [1]
APDetectThread          0x0800aa87    0x118  Code  Gb  ioftime.o [1]
AT_ExecuteCommand       0x080149c3     0xca  Code  Lc  es_wifi.o [1]
AT_ParseConnSettings    0x080148b5     0xfc  Code  Lc  es_wifi.o [1]
AT_ParseInfo            0x080147ff     0xac  Code  Lc  es_wifi.o [1]
AT_ParseIsConnected     0x080149b1     0x12  Code  Lc  es_wifi.o [1]
AT_RequestReceiveData   0x08014b93    0x130  Code  Lc  es_wifi.o [1]
AT_RequestSendData      0x08014a91    0x102  Code  Lc  es_wifi.o [1]
AccelerometerDrv        0x20014edc      0x4  Data  Lc  stm32l475e_iot01_accelero.o [1]
BSP_ACCELERO_AccGetXYZ  0x0801ceff     0x22  Code  Gb  stm32l475e_iot01_accelero.o [1]
BSP_ACCELERO_Init       0x0801ce95     0x6a  Code  Gb  stm32l475e_iot01_accelero.o [1]
BSP_COM_Init            0x08016dfb     0xd0  Code  Gb  stm32l475e_iot01.o [1]
BSP_HSENSOR_Init        0x0801cf2d     0x26  Code  Gb  stm32l475e_iot01_hsensor.o [1]
BSP_HSENSOR_ReadHumidity
                        0x0801cf53      0xe  Code  Gb  stm32l475e_iot01_hsensor.o [1]
BSP_LED_Init            0x08016c95     0x56  Code  Gb  stm32l475e_iot01.o [1]
BSP_LED_Off             0x08016d0d     0x22  Code  Gb  stm32l475e_iot01.o [1]
BSP_LED_On              0x08016ceb     0x22  Code  Gb  stm32l475e_iot01.o [1]
BSP_LED_Toggle          0x08016d2f     0x20  Code  Gb  stm32l475e_iot01.o [1]
BSP_PB_Init             0x08016d4f     0xac  Code  Gb  stm32l475e_iot01.o [1]
BSP_TSENSOR_Init        0x0801cf6d     0x20  Code  Gb  stm32l475e_iot01_tsensor.o [1]
BSP_TSENSOR_ReadTemp    0x0801cf8d      0xe  Code  Gb  stm32l475e_iot01_tsensor.o [1]
BSP_UART4_Init          0x08016ac3     0x78  Code  Lc  main.o [1]
BUTTON_IRQn             0x08004afe      0x2  Data  Gb  stm32l475e_iot01.o [1]
BUTTON_PIN              0x080045ea      0x2  Data  Gb  stm32l475e_iot01.o [1]
BUTTON_PORT             0x2000057c      0x4  Data  Gb  stm32l475e_iot01.o [1]
BusFault_Handler        0x0801ff8f      0x2  Code  Gb  stm32l4xx_it.o [1]
Button_ISR              0x080169d9      0xc  Code  Lc  main.o [1]
Button_WaitForPush      0x080169e5     0x3c  Code  Gb  main.o [1]
CLOUD_Error_Handler     0x0800ebd5     0x48  Code  Gb  gagent_iot_test_basic_connectivity.o [1]
COM_RX_AF               0x08010ab6      0x2  Data  Gb  stm32l475e_iot01.o [1]
COM_RX_PIN              0x08007eda      0x2  Data  Gb  stm32l475e_iot01.o [1]
COM_RX_PORT             0x20000588      0x4  Data  Gb  stm32l475e_iot01.o [1]
COM_TX_AF               0x0800bc46      0x2  Data  Gb  stm32l475e_iot01.o [1]
COM_TX_PIN              0x08004ba6      0x2  Data  Gb  stm32l475e_iot01.o [1]
COM_TX_PORT             0x20000584      0x4  Data  Gb  stm32l475e_iot01.o [1]
COM_USART               0x20000580      0x4  Data  Gb  stm32l475e_iot01.o [1]
CSTACK$$Base            0x20014f98            --   Gb  - Linker created -
CSTACK$$Limit           0x20016f98            --   Gb  - Linker created -
CacheMore               0x08015449     0x24  Code  Lc  xlocale_c.o [4]
Console_UART_Init       0x08016a21     0x4a  Code  Lc  main.o [1]
DebugMon_Handler        0x0801ff93      0x2  Code  Gb  stm32l4xx_it.o [1]
Device_Passive_Report   0x20014f7e      0x1  Data  Gb  gagent_iot_test_basic_connectivity.o [1]
DownloadStatus          0x20014f92      0x1  Data  Lc  otawan.o [3]
Dtentox                 0x0801eb75    0x19a  Code  Lc  strto64.o [5]
ES_WIFI_Connect         0x08014d5b     0xc4  Code  Gb  es_wifi.o [1]
ES_WIFI_DNS_LookUp      0x08014f25     0x5c  Code  Gb  es_wifi.o [1]
ES_WIFI_GetMACAddress   0x08014ec1     0x56  Code  Gb  es_wifi.o [1]
ES_WIFI_GetNetworkSettings
                        0x08014e6b     0x4c  Code  Gb  es_wifi.o [1]
ES_WIFI_Init            0x08014cc3     0x56  Code  Gb  es_wifi.o [1]
ES_WIFI_IsConnected     0x08014e1f     0x4c  Code  Gb  es_wifi.o [1]
ES_WIFI_ReceiveData     0x08015281    0x138  Code  Gb  es_wifi.o [1]
ES_WIFI_RegisterBusIO   0x08014d19     0x42  Code  Gb  es_wifi.o [1]
ES_WIFI_SendData        0x08015119    0x14c  Code  Gb  es_wifi.o [1]
ES_WIFI_StartClientConnection
                        0x08014f8d    0x110  Code  Gb  es_wifi.o [1]
ES_WIFI_StopClientConnection
                        0x0801509d     0x5e  Code  Gb  es_wifi.o [1]
EXTI15_10_IRQHandler    0x0801ff9d      0xc  Code  Gb  stm32l4xx_it.o [1]
EXTI1_IRQHandler        0x0801ffc7      0xa  Code  Gb  stm32l4xx_it.o [1]
Error_Handler           0x08016c85     0x10  Code  Gb  main.o [1]
EsWifiObj               0x2001387c    0x6a8  Data  Gb  wifi.o [1]
FLASH_FlushCaches       0x0801c661     0x9a  Code  Gb  stm32l4xx_hal_flash_ex.o [1]
FLASH_MassErase         0x0801c5bd     0x3a  Code  Lc  stm32l4xx_hal_flash_ex.o [1]
FLASH_OB_GetPCROP       0x0801cb03     0xbe  Code  Lc  stm32l4xx_hal_flash_ex.o [1]
FLASH_OB_GetRDP         0x0801cad3     0x26  Code  Lc  stm32l4xx_hal_flash_ex.o [1]
FLASH_OB_GetUser        0x0801caf9      0xa  Code  Lc  stm32l4xx_hal_flash_ex.o [1]
FLASH_OB_GetWRP         0x0801ca6b     0x68  Code  Lc  stm32l4xx_hal_flash_ex.o [1]
FLASH_OB_PCROPConfig    0x0801c93d    0x12e  Code  Lc  stm32l4xx_hal_flash_ex.o [1]
FLASH_OB_RDPConfig      0x0801c7b9     0x58  Code  Lc  stm32l4xx_hal_flash_ex.o [1]
FLASH_OB_UserConfig     0x0801c811    0x12c  Code  Lc  stm32l4xx_hal_flash_ex.o [1]
FLASH_OB_WRPConfig      0x0801c6fb     0xbe  Code  Lc  stm32l4xx_hal_flash_ex.o [1]
FLASH_PageErase         0x0801c5f7     0x6a  Code  Gb  stm32l4xx_hal_flash_ex.o [1]
FLASH_Program_DoubleWord
                        0x0801c317     0x18  Code  Lc  stm32l4xx_hal_flash.o [1]
FLASH_Program_Fast      0x0801c32f     0x2c  Code  Lc  stm32l4xx_hal_flash.o [1]
FLASH_SetErrorCode      0x0801c225     0xf2  Code  Lc  stm32l4xx_hal_flash.o [1]
FLASH_WaitForLastOperation
                        0x0801c18d     0x98  Code  Gb  stm32l4xx_hal_flash.o [1]
FLASH_get_bank          0x0801721b     0x70  Code  Gb  flash_l4.o [1]
FLASH_get_pageInBank    0x0801728b     0x94  Code  Gb  flash_l4.o [1]
FLASH_set_boot_bank     0x080173ef     0x8c  Code  Gb  flash_l4.o [1]
FLASH_unlock_erase      0x0801712d     0x6e  Code  Gb  flash_l4.o [1]
FLASH_update            0x0801731f     0xd0  Code  Gb  flash_l4.o [1]
FLASH_write_at          0x0801719b     0x80  Code  Gb  flash_l4.o [1]
FirmwareDownloadCb      0x08013d11     0x72  Code  Gb  ioffile.o [1]
GAgentEnableBind        0x0800fd49     0x10  Code  Gb  local.o [3]
GAgent_MD5Decode        0x080093c9     0x38  Code  Gb  gagent_md5.o [3]
GAgent_MD5Encode        0x0800938b     0x3e  Code  Gb  gagent_md5.o [3]
GAgent_MD5Final         0x0800933f     0x4c  Code  Gb  gagent_md5.o [3]
GAgent_MD5Init          0x0800927d     0x22  Code  Gb  gagent_md5.o [3]
GAgent_MD5Transform     0x08009401    0x67e  Code  Gb  gagent_md5.o [3]
GAgent_MD5Update        0x0800929f     0xa0  Code  Gb  gagent_md5.o [3]
GPIO_PIN                0x080291f8      0x4  Data  Gb  stm32l475e_iot01.o [1]
GPIO_PORT               0x20000578      0x4  Data  Gb  stm32l475e_iot01.o [1]
GetDevTime_S            0x0800a949     0x10  Code  Gb  ioftime.o [1]
HAL_DMA_Abort_IT        0x0801cd35     0x58  Code  Gb  stm32l4xx_hal_dma.o [1]
HAL_Delay               0x08017741     0x20  Code  Wk  stm32l4xx_hal.o [1]
HAL_FLASHEx_Erase       0x0801c389    0x136  Code  Gb  stm32l4xx_hal_flash_ex.o [1]
HAL_FLASHEx_OBGetConfig
                        0x0801c555     0x68  Code  Gb  stm32l4xx_hal_flash_ex.o [1]
HAL_FLASHEx_OBProgram   0x0801c4bf     0x96  Code  Gb  stm32l4xx_hal_flash_ex.o [1]
HAL_FLASH_OB_Launch     0x0801c175     0x18  Code  Gb  stm32l4xx_hal_flash.o [1]
HAL_FLASH_OB_Unlock     0x0801c159     0x1c  Code  Gb  stm32l4xx_hal_flash.o [1]
HAL_FLASH_Program       0x0801c06d     0xd0  Code  Gb  stm32l4xx_hal_flash.o [1]
HAL_FLASH_Unlock        0x0801c13d     0x1c  Code  Gb  stm32l4xx_hal_flash.o [1]
HAL_GPIO_EXTI_Callback  0x08016c65     0x20  Code  Gb  main.o [1]
HAL_GPIO_EXTI_IRQHandler
                        0x080183cb     0x1e  Code  Gb  stm32l4xx_hal_gpio.o [1]
HAL_GPIO_Init           0x080181a9    0x1f2  Code  Gb  stm32l4xx_hal_gpio.o [1]
HAL_GPIO_ReadPin        0x0801839b     0x14  Code  Gb  stm32l4xx_hal_gpio.o [1]
HAL_GPIO_TogglePin      0x080183c1      0xa  Code  Gb  stm32l4xx_hal_gpio.o [1]
HAL_GPIO_WritePin       0x080183af     0x12  Code  Gb  stm32l4xx_hal_gpio.o [1]
HAL_GetTick             0x08013ff9      0xc  Code  Wk  stm32l4xx_hal.o [1]
HAL_I2CEx_ConfigAnalogFilter
                        0x0801c009     0x64  Code  Gb  stm32l4xx_hal_i2c_ex.o [1]
HAL_I2C_DeInit          0x0801b861     0x42  Code  Gb  stm32l4xx_hal_i2c.o [1]
HAL_I2C_Init            0x0801b795     0xcc  Code  Gb  stm32l4xx_hal_i2c.o [1]
HAL_I2C_Mem_Read        0x0801bac1    0x216  Code  Gb  stm32l4xx_hal_i2c.o [1]
HAL_I2C_Mem_Write       0x0801b8a3    0x216  Code  Gb  stm32l4xx_hal_i2c.o [1]
HAL_IWDG_Init           0x08016827     0x62  Code  Gb  stm32l4xx_hal_iwdg.o [1]
HAL_IWDG_Refresh        0x08016889      0xe  Code  Gb  stm32l4xx_hal_iwdg.o [1]
HAL_IncTick             0x0801e6a5     0x10  Code  Wk  stm32l4xx_hal.o [1]
HAL_Init                0x080192dd     0x16  Code  Gb  stm32l4xx_hal.o [1]
HAL_InitTick            0x0801cd91     0x86  Code  Gb  stm32l4xx_hal_timebase_tim.o [1]
HAL_NVIC_EnableIRQ      0x0801601b      0xe  Code  Gb  stm32l4xx_hal_cortex.o [1]
HAL_NVIC_SetPriority    0x08015ff1     0x2a  Code  Gb  stm32l4xx_hal_cortex.o [1]
HAL_NVIC_SetPriorityGrouping
                        0x08015fe5      0xc  Code  Gb  stm32l4xx_hal_cortex.o [1]
HAL_NVIC_SystemReset    0x08016029      0x8  Code  Gb  stm32l4xx_hal_cortex.o [1]
HAL_PWREx_ControlVoltageScaling
                        0x0801a6b9     0x8a  Code  Gb  stm32l4xx_hal_pwr_ex.o [1]
HAL_PWREx_GetVoltageRange
                        0x0801a6ad      0xc  Code  Gb  stm32l4xx_hal_pwr_ex.o [1]
HAL_RCCEx_EnableMSIPLLMode
                        0x0801a3b5     0x12  Code  Gb  stm32l4xx_hal_rcc_ex.o [1]
HAL_RCCEx_PeriphCLKConfig
                        0x08019f35    0x46a  Code  Gb  stm32l4xx_hal_rcc_ex.o [1]
HAL_RCC_ClockConfig     0x08019b11    0x1dc  Code  Gb  stm32l4xx_hal_rcc.o [1]
HAL_RCC_GetClockConfig  0x08019e23     0x3a  Code  Gb  stm32l4xx_hal_rcc.o [1]
HAL_RCC_GetHCLKFreq     0x08019df1      0x6  Code  Gb  stm32l4xx_hal_rcc.o [1]
HAL_RCC_GetPCLK1Freq    0x08019df7     0x16  Code  Gb  stm32l4xx_hal_rcc.o [1]
HAL_RCC_GetPCLK2Freq    0x08019e0d     0x16  Code  Gb  stm32l4xx_hal_rcc.o [1]
HAL_RCC_GetSysClockFreq
                        0x08019ced    0x104  Code  Gb  stm32l4xx_hal_rcc.o [1]
HAL_RCC_OscConfig       0x080194e9    0x628  Code  Gb  stm32l4xx_hal_rcc.o [1]
HAL_RNG_Init            0x080192f5     0x4a  Code  Gb  stm32l4xx_hal_rng.o [1]
HAL_RNG_MspInit         0x0801ce49     0x26  Code  Gb  stm32l4xx_hal_msp.o [1]
HAL_RTC_Init            0x0801b3c5     0xdc  Code  Gb  stm32l4xx_hal_rtc.o [1]
HAL_RTC_MspInit         0x0801ce6f     0x16  Code  Gb  stm32l4xx_hal_msp.o [1]
HAL_RTC_SetDate         0x0801b5cd    0x11c  Code  Gb  stm32l4xx_hal_rtc.o [1]
HAL_RTC_SetTime         0x0801b4a1    0x12c  Code  Gb  stm32l4xx_hal_rtc.o [1]
HAL_RTC_WaitForSynchro  0x0801b6f5     0x36  Code  Gb  stm32l4xx_hal_rtc.o [1]
HAL_SPI_DeInit          0x080184e9     0x38  Code  Gb  stm32l4xx_hal_spi.o [1]
HAL_SPI_IRQHandler      0x08018c89    0x110  Code  Gb  stm32l4xx_hal_spi.o [1]
HAL_SPI_Init            0x08018421     0xc8  Code  Gb  stm32l4xx_hal_spi.o [1]
HAL_SPI_Receive         0x08018521    0x19e  Code  Gb  stm32l4xx_hal_spi.o [1]
HAL_SPI_Receive_IT      0x08018a73     0xf2  Code  Gb  stm32l4xx_hal_spi.o [1]
HAL_SPI_RxCpltCallback  0x0801667d     0x1c  Code  Gb  es_wifi_io.o [1]
HAL_SPI_TransmitReceive
                        0x080186bf    0x300  Code  Gb  stm32l4xx_hal_spi.o [1]
HAL_SPI_TransmitReceive_IT
                        0x08018b65    0x102  Code  Gb  stm32l4xx_hal_spi.o [1]
HAL_SPI_Transmit_IT     0x080189bf     0xb4  Code  Gb  stm32l4xx_hal_spi.o [1]
HAL_SPI_TxCpltCallback  0x08016699     0x1c  Code  Gb  es_wifi_io.o [1]
HAL_TIMEx_BreakCallback
                        0x0801efdb      0x2  Code  Wk  stm32l4xx_hal_tim_ex.o [1]
HAL_TIMEx_CommutationCallback
                        0x0801efdf      0x2  Code  Wk  stm32l4xx_hal_tim_ex.o [1]
HAL_TIM_Base_Init       0x0801e3e5     0x38  Code  Gb  stm32l4xx_hal_tim.o [1]
HAL_TIM_Base_Start_IT   0x0801e41d     0x1e  Code  Gb  stm32l4xx_hal_tim.o [1]
HAL_TIM_IRQHandler      0x0801e43b    0x176  Code  Gb  stm32l4xx_hal_tim.o [1]
HAL_TIM_PeriodElapsedCallback
                        0x0801ce17     0x1c  Code  Gb  stm32l4xx_hal_timebase_tim.o [1]
HAL_TIM_PeriodElapsedCallback::count_basetimer
                        0x20014eec      0x4  Data  Lc  stm32l4xx_hal_timebase_tim.o [1]
HAL_UARTEx_WakeupCallback
                        0x0801d4f7      0x2  Code  Wk  stm32l4xx_hal_uart_ex.o [1]
HAL_UART_IRQHandler     0x0801aaa1    0x188  Code  Gb  stm32l4xx_hal_uart.o [1]
HAL_UART_Init           0x0801a755     0x7e  Code  Gb  stm32l4xx_hal_uart.o [1]
HAL_UART_Receive        0x0801a8a1    0x118  Code  Gb  stm32l4xx_hal_uart.o [1]
HAL_UART_Receive_IT     0x0801a9b9     0xe0  Code  Gb  stm32l4xx_hal_uart.o [1]
HAL_UART_RxCpltCallback
                        0x08017f5d     0x34  Code  Gb  iofserial.o [1]
HAL_UART_Transmit       0x0801a7d3     0xce  Code  Gb  stm32l4xx_hal_uart.o [1]
HTS221_H_Drv            0x20000560      0xc  Data  Gb  hts221.o [1]
HTS221_H_Init           0x0801f4e9     0x34  Code  Gb  hts221.o [1]
HTS221_H_ReadHumidity   0x0801f535     0xf2  Code  Gb  hts221.o [1]
HTS221_H_ReadID         0x0801f51d     0x18  Code  Gb  hts221.o [1]
HTS221_T_Drv            0x20000550     0x10  Data  Gb  hts221.o [1]
HTS221_T_Init           0x0801f635     0x36  Code  Gb  hts221.o [1]
HTS221_T_ReadTemp       0x0801f66b     0xe2  Code  Gb  hts221.o [1]
HUMIDITY_Value          0x20014f8b      0x1  Data  Lc  sensors_data.o [1]
HardFault_Handler       0x0801ff8b      0x2  Code  Gb  stm32l4xx_it.o [1]
Hex2Num                 0x080146a9     0x42  Code  Lc  es_wifi.o [1]
Hsensor_drv             0x20014ee0      0x4  Data  Lc  stm32l475e_iot01_hsensor.o [1]
Http_Decrypt_RES        0x080001fd    0x168  Code  Gb  gserver.o [3]
Http_Decrypt_RES::__FUNCTION__
                        0x08027f40     0x14  Data  Lc  gserver.o [3]
Http_getdomain_port     0x08000365     0xde  Code  Lc  gserver.o [3]
I2C_Flush_TXDR          0x0801be2d     0x24  Code  Lc  stm32l4xx_hal_i2c.o [1]
I2C_IsAcknowledgeFailed
                        0x0801bf53     0x7e  Code  Lc  stm32l4xx_hal_i2c.o [1]
I2C_RequestMemoryRead   0x0801bd87     0xa0  Code  Lc  stm32l4xx_hal_i2c.o [1]
I2C_RequestMemoryWrite  0x0801bce1     0xa4  Code  Lc  stm32l4xx_hal_i2c.o [1]
I2C_TransferConfig      0x0801bfd1     0x2a  Code  Lc  stm32l4xx_hal_i2c.o [1]
I2C_WaitOnFlagUntilTimeout
                        0x0801be51     0x58  Code  Lc  stm32l4xx_hal_i2c.o [1]
I2C_WaitOnSTOPFlagUntilTimeout
                        0x0801bf01     0x52  Code  Lc  stm32l4xx_hal_i2c.o [1]
I2C_WaitOnTXISFlagUntilTimeout
                        0x0801bea9     0x58  Code  Lc  stm32l4xx_hal_i2c.o [1]
I2Cx_Error              0x08017045     0x14  Code  Lc  stm32l475e_iot01.o [1]
I2Cx_Init               0x08016f63     0x3a  Code  Lc  stm32l475e_iot01.o [1]
I2Cx_MspInit            0x08016ecb     0x98  Code  Lc  stm32l475e_iot01.o [1]
I2Cx_ReadMultiple       0x08016f9d     0x54  Code  Lc  stm32l475e_iot01.o [1]
I2Cx_WriteMultiple      0x08016ff1     0x54  Code  Lc  stm32l475e_iot01.o [1]
IWDG_Refresh_Count_Test
                        0x0800ed35     0x34  Code  Lc  gagent_iot_test_basic_connectivity.o [1]
IWDG_Refresh_Count_Test::IWDG_count_init
                        0x20014f7f      0x1  Data  Lc  gagent_iot_test_basic_connectivity.o [1]
IWDG_Refresh_Count_Test::max_IWDG_interval
                        0x20014e7c      0x4  Data  Lc  gagent_iot_test_basic_connectivity.o [1]
IWDG_Refresh_Count_Test::pre_IWDG_count
                        0x20014e80      0x4  Data  Lc  gagent_iot_test_basic_connectivity.o [1]
InStream_Read           0x0801f761     0x26  Code  Lc  lz77_init.o [6]
InStream_StepRegion     0x0801f74d     0x14  Code  Lc  lz77_init.o [6]
LED_Last_Status         0x200005a6      0x1  Data  Gb  sensors_data.o [1]
LED_Status              0x200005a5      0x1  Data  Gb  sensors_data.o [1]
LSM6DSL_AccDeInit       0x0801f991     0x20  Code  Gb  lsm6dsl.o [1]
LSM6DSL_AccInit         0x0801f941     0x50  Code  Gb  lsm6dsl.o [1]
LSM6DSL_AccLowPower     0x0801f9c1     0x2e  Code  Gb  lsm6dsl.o [1]
LSM6DSL_AccReadID       0x0801f9b1     0x10  Code  Gb  lsm6dsl.o [1]
LSM6DSL_AccReadXYZ      0x0801f9f1     0xca  Code  Gb  lsm6dsl.o [1]
LoadInt                 0x0800ae9f     0x7a  Code  Lc  xprintffull.o [4]
LocalStatusSync         0x20014d1c     0x10  Data  Lc  local.o [3]
LocaltimerHandler       0x0800aa0d     0x14  Code  Gb  ioftime.o [1]
Lsm6dslAccDrv           0x20000504     0x34  Data  Gb  lsm6dsl.o [1]
MSIRangeTable           0x08022804     0x30  Data  Gb  system_stm32l4xx.o [1]
MX_IWDG_Init            0x0800e989     0x3a  Code  Lc  gagent_iot_test_basic_connectivity.o [1]
MemManage_Handler       0x0801ff8d      0x2  Code  Gb  stm32l4xx_it.o [1]
NMI_Handler             0x0801ff89      0x2  Code  Gb  stm32l4xx_it.o [1]
NVIC_EnableIRQ          0x08015f4b     0x16  Code  Lc  stm32l4xx_hal_cortex.o [1]
NVIC_EncodePriority     0x08015f87     0x42  Code  Lc  stm32l4xx_hal_cortex.o [1]
NVIC_GetPriorityGrouping
                        0x08015f41      0xa  Code  Lc  stm32l4xx_hal_cortex.o [1]
NVIC_SetPriority        0x08015f61     0x26  Code  Lc  stm32l4xx_hal_cortex.o [1]
NVIC_SetPriorityGrouping
                        0x08015f25     0x1c  Code  Lc  stm32l4xx_hal_cortex.o [1]
NVIC_SystemReset        0x08015fc9     0x1c  Code  Lc  stm32l4xx_hal_cortex.o [1]
OutStream_Write         0x0801f787     0x42  Code  Lc  lz77_init.o [6]
PADDING                 0x2000048c     0x40  Data  Gb  gagent_md5.o [3]
ParseHexNumber          0x080146eb     0x58  Code  Lc  es_wifi.o [1]
ParseIP                 0x080147c9     0x36  Code  Lc  es_wifi.o [1]
ParseMAC                0x08014793     0x36  Code  Lc  es_wifi.o [1]
ParseNumber             0x08014743     0x50  Code  Lc  es_wifi.o [1]
PendSV_Handler          0x0801cc31           Code  Gb  portasm.o [1]
PrepareMqttPayload      0x080193a5     0x9e  Code  Gb  sensors_data.o [1]
R                       0x200005a0      0x4  Data  Lc  aes.o [3]
RCCEx_PLLSAI1_Config    0x0801a3c7    0x176  Code  Lc  stm32l4xx_hal_rcc_ex.o [1]
RCCEx_PLLSAI2_Config    0x0801a53d    0x152  Code  Lc  stm32l4xx_hal_rcc_ex.o [1]
RCC_SetFlashLatencyFromMSIRange
                        0x08019e69     0x9a  Code  Lc  stm32l4xx_hal_rcc.o [1]
RTC_Bcd2ToByte          0x0801b77b     0x1a  Code  Gb  stm32l4xx_hal_rtc.o [1]
RTC_ByteToBcd2          0x0801b765     0x16  Code  Gb  stm32l4xx_hal_rtc.o [1]
RTC_EnterInitMode       0x0801b72b     0x3a  Code  Gb  stm32l4xx_hal_rtc.o [1]
RTC_Init                0x08016b8d     0x9c  Code  Lc  main.o [1]
Rcon                    0x08003b73     0x3e  Code  Gb  aes.o [3]
RecvCheckThreadHandler  0x20014ebc      0x4  Data  Gb  iofsocket.o [1]
Region$$Table$$Base     0x08025534            --   Gb  - Linker created -
Region$$Table$$Limit    0x08025560            --   Gb  - Linker created -
SENSOR_IO_Init          0x08017059      0xa  Code  Gb  stm32l475e_iot01.o [1]
SENSOR_IO_Read          0x08017085     0x2c  Code  Gb  stm32l475e_iot01.o [1]
SENSOR_IO_ReadMultiple  0x080170b1     0x28  Code  Gb  stm32l475e_iot01.o [1]
SENSOR_IO_Write         0x08017063     0x22  Code  Gb  stm32l475e_iot01.o [1]
SPI3_IRQHandler         0x0801ffd1      0xa  Code  Gb  stm32l4xx_it.o [1]
SPI_2linesRxISR_16BIT   0x08018e77     0x3e  Code  Lc  stm32l4xx_hal_spi.o [1]
SPI_2linesRxISR_8BIT    0x08018db1     0x72  Code  Lc  stm32l4xx_hal_spi.o [1]
SPI_2linesTxISR_16BIT   0x08018eb5     0x3a  Code  Lc  stm32l4xx_hal_spi.o [1]
SPI_2linesTxISR_8BIT    0x08018e23     0x54  Code  Lc  stm32l4xx_hal_spi.o [1]
SPI_CloseRxTx_ISR       0x080191cb     0x66  Code  Lc  stm32l4xx_hal_spi.o [1]
SPI_CloseRx_ISR         0x08019231     0x46  Code  Lc  stm32l4xx_hal_spi.o [1]
SPI_CloseTx_ISR         0x08019277     0x62  Code  Lc  stm32l4xx_hal_spi.o [1]
SPI_DMAAbortOnError     0x08018d99     0x18  Code  Lc  stm32l4xx_hal_spi.o [1]
SPI_EndRxTransaction    0x080190db     0x86  Code  Lc  stm32l4xx_hal_spi.o [1]
SPI_EndRxTxTransaction  0x08019161     0x6a  Code  Lc  stm32l4xx_hal_spi.o [1]
SPI_RxISR_16BIT         0x08018f19     0x2c  Code  Lc  stm32l4xx_hal_spi.o [1]
SPI_RxISR_8BIT          0x08018eef     0x2a  Code  Lc  stm32l4xx_hal_spi.o [1]
SPI_Send_Count          0x20014eb8      0x4  Data  Gb  iofsocket.o [1]
SPI_TxISR_16BIT         0x08018f69     0x26  Code  Lc  stm32l4xx_hal_spi.o [1]
SPI_TxISR_8BIT          0x08018f45     0x24  Code  Lc  stm32l4xx_hal_spi.o [1]
SPI_WIFI_DeInit         0x080163bd     0x3e  Code  Gb  es_wifi_io.o [1]
SPI_WIFI_Delay          0x08016603      0xc  Code  Gb  es_wifi_io.o [1]
SPI_WIFI_DelayUs        0x0801660f     0x6e  Code  Lc  es_wifi_io.o [1]
SPI_WIFI_DelayUs::cycle_per_loop
                        0x20014e6c      0x4  Data  Lc  es_wifi_io.o [1]
SPI_WIFI_ISR            0x080166b5     0x1a  Code  Gb  es_wifi_io.o [1]
SPI_WIFI_Init           0x080161b7    0x12e  Code  Gb  es_wifi_io.o [1]
SPI_WIFI_MspInit        0x08016049    0x16e  Code  Gb  es_wifi_io.o [1]
SPI_WIFI_ReceiveData    0x08016455     0xe4  Code  Gb  es_wifi_io.o [1]
SPI_WIFI_ResetModule    0x080162e5     0xd8  Code  Gb  es_wifi_io.o [1]
SPI_WIFI_SendData       0x08016539     0xca  Code  Gb  es_wifi_io.o [1]
SPI_WaitFifoStateUntilTimeout
                        0x0801902f     0xac  Code  Lc  stm32l4xx_hal_spi.o [1]
SPI_WaitFlagStateUntilTimeout
                        0x08018f8f     0xa0  Code  Lc  stm32l4xx_hal_spi.o [1]
SVC_Handler             0x0801cc89           Code  Gb  portasm.o [1]
SensorThreadHandler     0x20014ed4      0x4  Data  Gb  sensors_data.o [1]
SensorUploadDataCb      0x08019443     0x10  Code  Gb  sensors_data.o [1]
Sensor_Upload_Tick      0x20014ec4      0x4  Data  Gb  ioftime.o [1]
SerialRecThread         0x0800fe2f     0x1a  Code  Gb  iofpthread.o [1]
SerialSendThread        0x0800fe15     0x1a  Code  Gb  iofpthread.o [1]
SignalTick              0x20014d7c     0x10  Data  Lc  localcomm.o [3]
StrMac                  0x20014bcc     0x14  Data  Gb  iofnet.o [1]
SysTick_Handler         0x0801ff95      0x8  Code  Gb  stm32l4xx_it.o [1]
SystemClock_Config      0x08016915     0xc4  Code  Lc  main.o [1]
SystemCoreClock         0x2000058c      0x4  Data  Gb  system_stm32l4xx.o [1]
SystemInit              0x0801fcb1     0x4e  Code  Gb  system_stm32l4xx.o [1]
TEMPERATURE_Value       0x20014f8a      0x1  Data  Lc  sensors_data.o [1]
TIM6_DAC_IRQHandler     0x0801ffa9      0xa  Code  Gb  stm32l4xx_it.o [1]
TIM_Base_SetConfig      0x0801e5b1     0xd0  Code  Gb  stm32l4xx_hal_tim.o [1]
TcpDataRecThread        0x0800fdfd     0x18  Code  Gb  iofpthread.o [1]
TcpDataSendThread       0x0800fded     0x10  Code  Gb  iofpthread.o [1]
TimerThread             0x0800a995     0x22  Code  Gb  ioftime.o [1]
TimerThread::timernum   0x20014ec8      0x4  Data  Lc  ioftime.o [1]
UART4_IRQHandler        0x0801ffb3     0x14  Code  Gb  stm32l4xx_it.o [1]
UART_AdvFeatureConfig   0x0801b0d1     0xda  Code  Gb  stm32l4xx_hal_uart.o [1]
UART_CheckIdleState     0x0801b1ab     0x6e  Code  Gb  stm32l4xx_hal_uart.o [1]
UART_DMAAbortOnError    0x0801b2ad     0x1a  Code  Lc  stm32l4xx_hal_uart.o [1]
UART_EndRxTransfer      0x0801b287     0x24  Code  Lc  stm32l4xx_hal_uart.o [1]
UART_EndTransmit_IT     0x0801b2c7     0x22  Code  Lc  stm32l4xx_hal_uart.o [1]
UART_RxISR_16BIT        0x0801b353     0x6e  Code  Lc  stm32l4xx_hal_uart.o [1]
UART_RxISR_8BIT         0x0801b2e9     0x6a  Code  Lc  stm32l4xx_hal_uart.o [1]
UART_SetConfig          0x0801ac29    0x47c  Code  Gb  stm32l4xx_hal_uart.o [1]
UART_WaitOnFlagUntilTimeout
                        0x0801b219     0x6e  Code  Gb  stm32l4xx_hal_uart.o [1]
UsageFault_Handler      0x0801ff91      0x2  Code  Gb  stm32l4xx_it.o [1]
WIFI_CloseClientConnection
                        0x08013ef9     0x26  Code  Gb  wifi.o [1]
WIFI_Connect            0x08013deb     0x34  Code  Gb  wifi.o [1]
WIFI_GetHostAddress     0x08013e69     0x22  Code  Gb  wifi.o [1]
WIFI_GetIP_Address      0x08013e3d     0x2c  Code  Gb  wifi.o [1]
WIFI_GetMAC_Address     0x08013e1f     0x1e  Code  Gb  wifi.o [1]
WIFI_GetModuleFwRevision
                        0x08013f93     0x16  Code  Gb  wifi.o [1]
WIFI_GetModuleID        0x08013fa9     0x16  Code  Gb  wifi.o [1]
WIFI_GetModuleName      0x08013fbf     0x16  Code  Gb  wifi.o [1]
WIFI_Init               0x08013dad     0x3e  Code  Gb  wifi.o [1]
WIFI_IsConnected        0x200005a4      0x1  Data  Gb  ioftime.o [1]
WIFI_OpenClientConnection
                        0x08013e8b     0x6e  Code  Gb  wifi.o [1]
WIFI_ReceiveData        0x08013f59     0x3a  Code  Gb  wifi.o [1]
WIFI_SendData           0x08013f1f     0x3a  Code  Gb  wifi.o [1]
_Encoding_8859_1_Mbrlen
                        0x08002855      0x2  Code  Gb  xencoding_8859_1.o [4]
_Encoding_8859_1_Mbtowc
                        0x0800284d      0x8  Code  Gb  xencoding_8859_1.o [4]
_Encoding_8859_1_Wctomb
                        0x0800283b     0x12  Code  Gb  xencoding_8859_1.o [4]
_GenldFull              0x0800b921    0x274  Code  Lc  xprintffull.o [4]
_GetN                   0x0801d4fd     0x22  Code  Lc  xscanffull.o [4]
_GetfldFull             0x0801d75d    0x132  Code  Lc  xscanffull.o [4]
_GetfloatFull           0x0801ddb5    0x54c  Code  Lc  xscanffull.o [4]
_GetintFull             0x0801db89    0x224  Code  Lc  xscanffull.o [4]
_GetstrFull             0x0801d8d1    0x2b2  Code  Lc  xscanffull.o [4]
_LdtobFull              0x0800b4f5    0x3fe  Code  Lc  xprintffull.o [4]
_LitobFull              0x0800b39d    0x112  Code  Lc  xprintffull.o [4]
_LocaleC_isalpha        0x0801540f      0xc  Code  Gb  xlocale_c.o [4]
_LocaleC_islower        0x08015409      0x4  Code  Gb  xlocale_c.o [4]
_LocaleC_isspace        0x08015425     0x14  Code  Gb  xlocale_c.o [4]
_LocaleC_isupper        0x0801540d      0x2  Code  Gb  xlocale_c.o [4]
_LocaleC_tolower        0x08015439      0xc  Code  Gb  xlocale_c.o [4]
_Locale_lconv           0x200004cc     0x38  Data  Lc  xlocale_c.o [4]
_PrintfFull             0x0800acb1    0x1d6  Code  Gb  xprintffull.o [4]
_Prout                  0x08027919     0x16  Code  Gb  xprout.o [4]
_PutcharsFull           0x0800bb95     0x2e  Code  Lc  xprintffull.o [4]
_PutfldFull             0x0800af19    0x2d0  Code  Lc  xprintffull.o [4]
_PutstrFull             0x0800b2df     0xbe  Code  Lc  xprintffull.o [4]
_PuttxtFull             0x0800b1e9     0xf6  Code  Lc  xprintffull.o [4]
_Rand_idx               0x200146b0      0x4  Data  Lc  rand.o [4]
_Rand_rv                0x20014630     0x80  Data  Lc  rand.o [4]
_Randinit               0x2000056c      0x1  Data  Gb  rand.o [4]
_Randseed               0x20000570      0x4  Data  Gb  rand.o [4]
_SProut                 0x080039af      0xa  Code  Gb  xsprout.o [4]
_SScin                  0x0800395b     0x1e  Code  Gb  xsscin.o [4]
_ScanfFull              0x0801d539    0x200  Code  Gb  xscanffull.o [4]
_Strtok_ssave           0x20014f68      0x4  Data  Lc  strtok.o [4]
_UngetN                 0x0801d51f     0x1a  Code  Lc  xscanffull.o [4]
__aeabi_cdcmple         0x080159b9           Code  Gb  DblCmpLe.o [5]
__aeabi_cdrcmple        0x080159e9           Code  Gb  DblCmpGe.o [5]
__aeabi_d2f             0x0801ef6d           Code  Gb  DblToFlt.o [5]
__aeabi_d2iz            0x08015b55           Code  Gb  DblToS32.o [5]
__aeabi_d2uiz           0x08015ee1           Code  Gb  DblToU32.o [5]
__aeabi_dadd            0x08018031           Code  Gb  DblAdd.o [5]
__aeabi_ddiv            0x08015c99           Code  Gb  DblDiv.o [5]
__aeabi_dmul            0x080157a5           Code  Gb  DblMul.o [5]
__aeabi_dsub            0x08015bb5           Code  Gb  DblSub.o [5]
__aeabi_errno_addr      0x0801195b      0xc  Code  Gb  errno.o [4]
__aeabi_i2d             0x08015b91           Code  Gb  S32ToDbl.o [5]
__aeabi_ldiv0           0x0801802d           Code  Gb  I64DivZer.o [6]
__aeabi_memclr4         0x08003955           Code  Gb  ABImemclr4.o [6]
__aeabi_memcpy          0x08004b01           Code  Gb  ABImemcpy.o [6]
__aeabi_memcpy4         0x08004b21           Code  Gb  ABImemcpy.o [6]
__aeabi_memcpy8         0x08004b21           Code  Gb  ABImemcpy.o [6]
__aeabi_memset          0x08004585           Code  Gb  ABImemset.o [6]
__aeabi_ui2d            0x08015f09           Code  Gb  U32ToDbl.o [5]
__aeabi_uldivmod        0x08015575           Code  Gb  I64DivMod.o [6]
__cmain                 0x080262e1           Code  Gb  cmain.o [6]
__exit                  0x0801cd1d     0x14  Code  Gb  exit.o [7]
__firewall_ROM_start {Abs}
                        0x08066d00           Data  Gb  command line/config [2]
__gatListAdd            0x08011977      0xa  Code  Gb  gatlist.o [3]
__gatListDel            0x080119a5      0x6  Code  Gb  gatlist.o [3]
__iar_Errno             0x20014f70      0x4  Tls   Gb  errno.o [4]
__iar_Fail_s            0x08015529     0x1c  Code  Gb  xfail_s.o [4]
__iar_Mbcurmax          0x08015569      0xa  Code  Gb  xmbcurmax.o [4]
__iar_Memchr            0x080118f1           Code  Gb  memchr.o [6]
__iar_Memset            0x08004585           Code  Gb  ABImemset.o [6]
__iar_Memset4_word      0x0800fe71           Code  Gb  ABImemset48.o [6]
__iar_Memset8_word      0x0800fe71           Code  Gb  ABImemset48.o [6]
__iar_Memset_word       0x0800458d           Code  Gb  ABImemset.o [6]
__iar_Stdin             0x200003b4     0x48  Data  Gb  xfiles.o [4]
__iar_Stdout            0x200003fc     0x48  Data  Gb  xfiles.o [4]
__iar_Sto64             0x0801ed21    0x1a6  Code  Gb  strto64.o [5]
__iar_Stoflt            0x0801f105    0x1c8  Code  Gb  iar_Stoflt.o [4]
__iar_Stollx            0x0801e6f1     0x96  Code  Gb  iar_Stollx.o [4]
__iar_Stolx             0x080167a1     0x82  Code  Gb  iar_Stolx.o [4]
__iar_Stopfx            0x0801efe1    0x122  Code  Gb  iar_Stopfx.o [4]
__iar_Stoullx           0x0801e78d    0x15c  Code  Gb  iar_Stoullx.o [4]
__iar_Stoulx            0x08004ba9    0x112  Code  Gb  iar_Stoulx.o [4]
__iar_Stoxflt           0x0801f2cd    0x1e6  Code  Gb  iar_Stoxflt.o [4]
__iar_Stoxflt::digits   0x0801f4b8     0x18  Data  Lc  iar_Stoxflt.o [4]
__iar_Stoxflt::vals     0x0801f4d0     0x18  Data  Lc  iar_Stoxflt.o [4]
__iar_Strchr            0x08015511           Code  Gb  strchr.o [6]
__iar_dadd              0x08015bc5           Code  Gb  DblSub.o [5]
__iar_data_init3        0x080248d1     0x28  Code  Gb  data_init.o [6]
__iar_dsub              0x08018041           Code  Gb  DblAdd.o [5]
__iar_dsubStart         0x08018053           Code  Gb  DblAdd.o [5]
__iar_errno_set_ERANGE  0x08011949      0xc  Code  Gb  errno.o [4]
__iar_frexp             0x08015955           Code  Gb  frexp.o [5]
__iar_frexpl            0x08015955           Code  Gb  frexp.o [5]
__iar_globLocale        0x20000444     0x48  Data  Lc  xlocale_c.o [4]
__iar_global_Locale     0x08015445      0x4  Code  Gb  xlocale_c.o [4]
__iar_init_vfp          0x08025511           Code  Gb  fpinit_M.o [5]
__iar_ldexp64           0x08015a19           Code  Gb  ldexp.o [5]
__iar_lz77_init3        0x0801f7c9    0x176  Code  Gb  lz77_init.o [6]
__iar_nothread_read_tp  0x08017dcd      0x4  Code  Gb  tp_nothreads.o [4]
__iar_program_start     0x08028dbd           Code  Gb  cstartup_M.o [6]
__iar_scalbln64         0x08015a19           Code  Gb  ldexp.o [5]
__iar_scalbn64          0x08015a19           Code  Gb  ldexp.o [5]
__iar_softfp___iar_frexp64
                        0x08015949           Code  Gb  frexp.o [5]
__iar_softfp_frexp      0x08015949           Code  Gb  frexp.o [5]
__iar_softfp_frexpl     0x08015949           Code  Gb  frexp.o [5]
__iar_systems$$module {Abs}
                        0x00000001           Data  Gb  command line/config [2]
__iar_zero_init3        0x080211ad     0x40  Code  Gb  zero_init3.o [6]
__low_level_init        0x080262ff      0x4  Code  Gb  low_level_init.o [4]
__vector_table          0x08000000           Data  Gb  startup_stm32l475xx.o [1]
_adapteDnsReq           0x080067d3     0x3c  Code  Lc  gdns.o [3]
_call_main              0x080262ed           Code  Gb  cmain.o [6]
_dnsIpFound             0x080069bb     0x2a  Code  Lc  gdns.o [3]
_dnsIpFound::__FUNCTION__
                        0x08028c3c      0xc  Data  Lc  gdns.o [3]
_dnsIpNotFound          0x0800697d     0x3e  Code  Lc  gdns.o [3]
_dnsRegister            0x0800680f    0x16e  Code  Lc  gdns.o [3]
_dnsRegister::__FUNCTION__
                        0x080286cc     0x10  Data  Lc  gdns.o [3]
_dnsResult              0x08006a09     0x7c  Code  Lc  gdns.o [3]
_dnsResult::__FUNCTION__
                        0x08028c48      0xc  Data  Lc  gdns.o [3]
_dnsResultCb            0x080069e5     0x22  Code  Lc  gdns.o [3]
_dnsTick                0x08006a85     0xc0  Code  Lc  gdns.o [3]
_dnsTick::__FUNCTION__  0x08028c54      0xc  Data  Lc  gdns.o [3]
_exit                   0x08026309           Code  Gb  cexit.o [6]
_gLocale_mblen          0x080154ef      0x4  Code  Gb  xlocale_c.o [4]
_gLocale_mblenInt       0x0801546d     0x34  Code  Gb  xlocale_c.o [4]
_gLocale_mbtowc         0x080154f3      0xc  Code  Gb  xlocale_c.o [4]
_gLocale_mbtowcInt      0x080154a1     0x4a  Code  Gb  xlocale_c.o [4]
_gLocale_wctomb         0x080154ff      0x4  Code  Gb  xlocale_c.o [4]
_gLocale_wctombInt      0x080154eb      0x4  Code  Gb  xlocale_c.o [4]
_getDnsReqByName        0x0800676d     0x66  Code  Lc  gdns.o [3]
_getDnsReqByName::__FUNCTION__
                        0x08027f18     0x14  Data  Lc  gdns.o [3]
_main                   0x080262fb           Code  Gb  cmain.o [6]
abort                   0x08018025      0x6  Code  Gb  abort.o [4]
add_round_key           0x08003bb1     0x88  Code  Gb  aes.o [3]
aesDestroy              0x08003b41     0x32  Code  Gb  aes.o [3]
aesECB128Decrypt        0x0800424d     0xc0  Code  Gb  aes.o [3]
aesECB128Encrypt        0x08004197     0xb6  Code  Gb  aes.o [3]
aesInit                 0x08003b0d     0x34  Code  Gb  aes.o [3]
atoi                    0x08004cc1      0x2  Code  Gb  iar_Stoulx.o [4]
authFunCb               0x20014f50      0x4  Data  Gb  authorization.o [3]
authTimer               0x20014d4c     0x10  Data  Lc  authorization.o [3]
bindTimer               0x20014d5c     0x10  Data  Lc  localcomm.o [3]
button_flags            0x20014f88      0x1  Data  Lc  main.o [1]
cPayload                0x20014df8      0xc  Data  Gb  sensors_data.o [1]
checkCPUendian          0x0800bc6f     0x1a  Code  Gb  iofdev.o [1]
checkWiFiCredentials    0x0801453d     0x58  Code  Gb  iot_flash_config.o [1]
cipher                  0x08003feb     0xce  Code  Gb  aes.o [3]
cloudSendDataCb         0x0800770f     0x1a  Code  Gb  gatm2m.o [3]
cloudSendDataCb::__FUNCTION__
                        0x0802886c     0x10  Data  Lc  gatm2m.o [3]
cloud_connect           0x20014f74      0x2  Data  Gb  gagent_iot_test_basic_connectivity.o [1]
cmddata_rdy_rising_event
                        0x20014e54      0x4  Data  Lc  es_wifi_io.o [1]
cmddata_rdy_rising_sem  0x20014e68      0x4  Data  Lc  es_wifi_io.o [1]
coef_add                0x080039f1     0x26  Code  Gb  aes.o [3]
coef_mult               0x08003a17     0xc6  Code  Gb  aes.o [3]
configData              0x20000180     0xd8  Data  Gb  productinfo.o [3]
configDataLock          0x20014f48      0x4  Data  Lc  productinfo.o [3]
console_uart            0x200146b4     0x78  Data  Lc  main.o [1]
cpCurMode               0x20000594      0x4  Data  Gb  dp.o [3]
ddiv                    0x0801ea95     0xd0  Code  Lc  strto64.o [5]
devCmds                 0x20000000    0x180  Data  Gb  cmdtable.o [3]
devOtaUpgrade           0x0800bc49     0x1a  Code  Gb  iofdev.o [1]
devOtaUpgrade::__FUNCTION__
                        0x080282cc     0x10  Data  Lc  iofdev.o [1]
devRestart              0x0800bc63      0x8  Code  Gb  iofdev.o [1]
devUploadData           0x20014ad8     0x30  Data  Lc  simulatorcomm.o [3]
dev_free_heap_size      0x0800bc6b      0x4  Code  Gb  iofdev.o [1]
digits                  0x08004cd0     0x28  Data  Lc  iar_Stoulx.o [4]
digits                  0x0801e8f4     0x28  Data  Lc  iar_Stoullx.o [4]
dmul                    0x0801e9c1     0xd2  Code  Lc  strto64.o [5]
dnsDataDump             0x080066ad     0xc0  Code  Gb  gdns.o [3]
dnsReq                  0x20014404     0xd8  Data  Lc  gdns.o [3]
dnsReqTimer             0x20014d8c     0x10  Data  Lc  gdns.o [3]
dpTrans                 0x08011bb7     0xa8  Code  Gb  dp.o [3]
dpTrans::__FUNCTION__   0x08029058      0x8  Data  Lc  dp.o [3]
dumpPruductInfo         0x080021a1    0x160  Code  Gb  productinfo.o [3]
eTaskGetState           0x08010d21     0x78  Code  Gb  tasks.o [1]
encryptDisplay          0x08004afd      0x2  Code  Gb  gatutilcode.o [3]
es_wifi_mutex           0x20014e58      0x4  Data  Gb  es_wifi_io.o [1]
exit                    0x08026303      0x4  Code  Gb  exit.o [4]
fgetc                   0x08016b6b     0x22  Code  Gb  main.o [1]
findKey                 0x080045ed     0xac  Code  Lc  gatutilcode.o [3]
findValue               0x08004699     0xb6  Code  Lc  gatutilcode.o [3]
fputc                   0x08016b3b     0x30  Code  Gb  main.o [1]
gS_APList               0x20014e18      0x8  Data  Lc  iofnet.o [1]
gagentDataReceived      0x08003351    0x162  Code  Lc  gagent.o [3]
gagentDataReceived::__FUNCTION__
                        0x08027b80     0x14  Data  Lc  gagent.o [3]
gagentInit              0x0800fa25    0x274  Code  Gb  local.o [3]
gagentRebootTimer       0x08007f0d     0x1c  Code  Lc  localcomm.o [3]
gagentRebootTimer::__FUNCTION__
                        0x08027dd8     0x14  Data  Lc  localcomm.o [3]
gagentUploadData        0x0801d079    0x3f8  Code  Gb  simulatorcomm.o [3]
gagentUploadData::__FUNCTION__
                        0x08027d9c     0x14  Data  Lc  simulatorcomm.o [3]
gagent_test             0x0800ec1d    0x114  Code  Gb  gagent_iot_test_basic_connectivity.o [1]
gagent_test::__func__   0x080289cc      0xc  Data  Lc  gagent_iot_test_basic_connectivity.o [1]
gagent_test::count_main
                        0x20014e78      0x4  Data  Lc  gagent_iot_test_basic_connectivity.o [1]
gatAuthCbFun            0x0800f88f     0x18  Code  Gb  local.o [3]
gatAuthInit             0x08008ad1     0x1c  Code  Gb  authorization.o [3]
gatAuthInit::__FUNCTION__
                        0x08028ba0      0xc  Data  Lc  authorization.o [3]
gatAuthKeySet           0x080085c7     0x5a  Code  Lc  authorization.o [3]
gatAuthKeySet::__FUNCTION__
                        0x080285bc     0x10  Data  Lc  authorization.o [3]
gatAuthkeyGet           0x08008557     0x70  Code  Gb  authorization.o [3]
gatCheckSum             0x08008197     0x1c  Code  Gb  localcomm.o [3]
gatCleanConfigData      0x08003089    0x1f2  Code  Gb  gagent.o [3]
gatCleanConfigData::__FUNCTION__
                        0x08027b6c     0x14  Data  Lc  gagent.o [3]
gatCleanMqttCacheBuf    0x0800f5bd     0x42  Code  Gb  mqttgat.o [3]
gatCloudGizDataSend     0x0800f5ff     0xa4  Code  Gb  mqttgat.o [3]
gatCloudGizDataSend::__FUNCTION__
                        0x08027edc     0x14  Data  Lc  mqttgat.o [3]
gatConfigFlagSet        0x0800247b     0x2c  Code  Gb  productinfo.o [3]
gatConfigFlagSet::__FUNCTION__
                        0x08027c20     0x14  Data  Lc  productinfo.o [3]
gatConfigInfoExtracFromEnv
                        0x08001bad    0x158  Code  Lc  productinfo.o [3]
gatConfigInfoSaveToEnv  0x08001d05    0x158  Code  Lc  productinfo.o [3]
gatConfigInfoSaveToEnv::__FUNCTION__
                        0x08027210     0x18  Data  Lc  productinfo.o [3]
gatCreatNewPassCode     0x0800235d     0x5a  Code  Gb  productinfo.o [3]
gatCreatNewPassCode::__FUNCTION__
                        0x08027bd0     0x14  Data  Lc  productinfo.o [3]
gatDataRecCb            0x0800327b     0xba  Code  Lc  gagent.o [3]
gatDataRecCb::__FUNCTION__
                        0x0802843c     0x10  Data  Lc  gagent.o [3]
gatDataSend             0x08003501    0x258  Code  Gb  gagent.o [3]
gatDataSend::__FUNCTION__
                        0x08028aa4      0xc  Data  Lc  gagent.o [3]
gatDataSendCb           0x08002861     0xac  Code  Lc  gagent.o [3]
gatDataSendCb::__FUNCTION__
                        0x080283cc     0x10  Data  Lc  gagent.o [3]
gatDealUserPayload90    0x0800299f     0xe0  Code  Gb  gagent.o [3]
gatDealUserPayload90::__FUNCTION__
                        0x08027168     0x18  Data  Lc  gagent.o [3]
gatDealUserPayload93    0x08002a89    0x3fe  Code  Gb  gagent.o [3]
gatDealUserPayload93::__FUNCTION__
                        0x08027180     0x18  Data  Lc  gagent.o [3]
gatDelTcpDataNode       0x0800d035     0x64  Code  Lc  tcp.o [3]
gatDeviceDisableRecCb   0x08000d2d     0xc0  Code  Lc  gserver.o [3]
gatDeviceDisableRecCb::__FUNCTION__
                        0x080275e8     0x18  Data  Lc  gserver.o [3]
gatDnsTask              0x08006ba7     0xa2  Code  Gb  gdns.o [3]
gatDownLoadFirmwareCb   0x0800dce9    0x4a4  Code  Lc  otawan.o [3]
gatDownLoadFirmwareCb::MD5
                        0x20014ddc     0x10  Data  Lc  otawan.o [3]
gatDownLoadFirmwareCb::__FUNCTION__
                        0x080277e0     0x18  Data  Lc  otawan.o [3]
gatDownLoadFirmwareCb::ctx
                        0x200148e0     0x58  Data  Lc  otawan.o [3]
gatDownLoadFirmwareCb::downloadCnt
                        0x20014f5c      0x4  Data  Lc  otawan.o [3]
gatDownLoadFirmwareCb::fd
                        0x2000059c      0x4  Data  Lc  otawan.o [3]
gatDownLoadFirmwareCb::filetype
                        0x200005a9      0x1  Data  Lc  otawan.o [3]
gatDownloadFirmware     0x0800dbd3     0x96  Code  Lc  otawan.o [3]
gatDumpEnvInfo          0x08002049    0x152  Code  Gb  productinfo.o [3]
gatDumpEnvInfo::__FUNCTION__
                        0x0802845c     0x10  Data  Lc  productinfo.o [3]
gatEnableBindStart      0x08007f29     0x70  Code  Gb  localcomm.o [3]
gatEnableBindStart::__FUNCTION__
                        0x08027dec     0x14  Data  Lc  localcomm.o [3]
gatEnableBindTimeOut    0x08007ee3     0x2a  Code  Lc  localcomm.o [3]
gatEnableBindTimeOut::__FUNCTION__
                        0x08027450     0x18  Data  Lc  localcomm.o [3]
gatEnterTest            0x08008149     0x1e  Code  Gb  localcomm.o [3]
gatEnterTest::__FUNCTION__
                        0x0802863c     0x10  Data  Lc  localcomm.o [3]
gatEnterTestMode        0x080090a5     0x36  Code  Gb  gatnet.o [3]
gatEnvRead              0x0800a42b     0x96  Code  Gb  env.o [3]
gatEnvRead::__FUNCTION__
                        0x08028db0      0xc  Data  Lc  env.o [3]
gatEnvWrite             0x0800a2c9    0x162  Code  Gb  env.o [3]
gatEnvWrite::__FUNCTION__
                        0x08028da4      0xc  Data  Lc  env.o [3]
gatExitTest             0x080090db     0x88  Code  Gb  gatnet.o [3]
gatFactoryMode          0x08007f99     0x34  Code  Gb  localcomm.o [3]
gatFactoryMode::__FUNCTION__
                        0x0802861c     0x10  Data  Lc  localcomm.o [3]
gatFlag                 0x20014e28      0x8  Data  Lc  productinfo.o [3]
gatGServerHandleGatStatus
                        0x080019ad     0x9a  Code  Lc  gserver.o [3]
gatGServerHandleGatStatus::__FUNCTION__
                        0x08026d08     0x1c  Data  Lc  gserver.o [3]
gatGServerInit          0x08001a47     0x14  Code  Gb  gserver.o [3]
gatGServerStart         0x0800182d    0x172  Code  Gb  gserver.o [3]
gatGetAuthReqAck        0x08008a29     0xa8  Code  Gb  authorization.o [3]
gatGetAuthReqAck::__FUNCTION__
                        0x08027dc4     0x14  Data  Lc  authorization.o [3]
gatGetFileType          0x0800e735    0x11e  Code  Gb  otawan.o [3]
gatGetHostByName        0x08006b45     0x62  Code  Gb  gdns.o [3]
gatGetHostByName::__FUNCTION__
                        0x08027f2c     0x14  Data  Lc  gdns.o [3]
gatGetHostFromUrl       0x0800dadb     0xf8  Code  Lc  otawan.o [3]
gatGetM2MDomain         0x08006f93      0xa  Code  Gb  gatm2m.o [3]
gatGetM2MPort           0x08006fc9      0xa  Code  Gb  gatm2m.o [3]
gatGetMD5               0x0800e611    0x106  Code  Gb  otawan.o [3]
gatGetMcuInfo           0x08007edd      0x6  Code  Gb  localcomm.o [3]
gatGetSoftVer           0x08002935     0x18  Code  Gb  gagent.o [3]
gatGetSoftVer::__FUNCTION__
                        0x080283ec     0x10  Data  Lc  gagent.o [3]
gatGetSoftVer::szGatSoftVer
                        0x20014e04      0xc  Data  Lc  gagent.o [3]
gatHTTPRecvTick         0x08006081     0xc0  Code  Lc  httpgat.o [3]
gatHTTPRecvTick::__FUNCTION__
                        0x0802877c     0x10  Data  Lc  httpgat.o [3]
gatHttpInit             0x08004d61     0x48  Code  Gb  httpgat.o [3]
gatHttpReq              0x08005705    0x20c  Code  Gb  httpgat.o [3]
gatHttpReq::__FUNCTION__
                        0x08028cf0      0xc  Data  Lc  httpgat.o [3]
gatInit                 0x08003795     0x56  Code  Gb  gagent.o [3]
gatInit::__FUNCTION__   0x08028f80      0x8  Data  Lc  gagent.o [3]
gatIofNetGetRssi        0x0800a729      0x6  Code  Gb  iofnet.o [1]
gatIofNetInit           0x0800a69f     0x86  Code  Gb  iofnet.o [1]
gatIofNetInit::__FUNCTION__
                        0x080282ec     0x10  Data  Lc  iofnet.o [1]
gatIofSelect            0x0800c09f     0x1a  Code  Gb  iofsocket.o [1]
gatIofSocketClose       0x0800bd1d     0x56  Code  Gb  iofsocket.o [1]
gatIofSocketClose::socket_close_count
                        0x20014f84      0x1  Data  Lc  iofsocket.o [1]
gatIofSocketConnect     0x0800be0b    0x11a  Code  Gb  iofsocket.o [1]
gatIofSocketConnect::__FUNCTION__
                        0x08027a2c     0x14  Data  Lc  iofsocket.o [1]
gatIofSocketConnect::tcp_failed_count
                        0x20014f87      0x1  Data  Lc  iofsocket.o [1]
gatIofSocketInit        0x0800c0df      0x2  Code  Gb  iofsocket.o [1]
gatIofSocketOpen        0x0800bd73     0x98  Code  Gb  iofsocket.o [1]
gatIofSocketOpen::recv_check_thread_init
                        0x20014f85      0x1  Data  Lc  iofsocket.o [1]
gatIofSocketOpen::socket_count
                        0x20014f86      0x1  Data  Lc  iofsocket.o [1]
gatIofSocketTcpRecv     0x0800bf8d    0x112  Code  Gb  iofsocket.o [1]
gatIofTcpSend           0x0800bf25     0x68  Code  Gb  iofsocket.o [1]
gatLanLoginClientNumGet
                        0x08009bbd      0x4  Code  Gb  lanvirtual.o [3]
gatLanSend              0x08009b9b     0x18  Code  Gb  lanvirtual.o [3]
gatLanSend::__FUNCTION__
                        0x08028d08      0xc  Data  Lc  lanvirtual.o [3]
gatListAdd              0x08011981     0x12  Code  Gb  gatlist.o [3]
gatListAddTail          0x08011993     0x12  Code  Gb  gatlist.o [3]
gatListDel              0x080119ab     0x12  Code  Gb  gatlist.o [3]
gatListEmpty            0x080119bd     0x10  Code  Gb  gatlist.o [3]
gatListHeadInit         0x08011971      0x6  Code  Gb  gatlist.o [3]
gatLocalErrHandle       0x080082a1     0x68  Code  Gb  localcomm.o [3]
gatLocalErrHandleAckTimeOut
                        0x0800828d     0x10  Code  Gb  localcomm.o [3]
gatLocalErrHandleAckTimeOut::__FUNCTION__
                        0x08026a14     0x1c  Data  Lc  localcomm.o [3]
gatLocalGAgentRestart   0x08008167     0x30  Code  Gb  localcomm.o [3]
gatLocalGAgentRestart::__FUNCTION__
                        0x08027480     0x18  Data  Lc  localcomm.o [3]
gatLocalHandle          0x08008309     0xfc  Code  Gb  localcomm.o [3]
gatLocalHandle::__FUNCTION__
                        0x0802865c     0x10  Data  Lc  localcomm.o [3]
gatLocalInit            0x0800f8a7    0x17e  Code  Gb  local.o [3]
gatLocalModuleCheck     0x08007fcd    0x17c  Code  Gb  localcomm.o [3]
gatLocalRecTimerOutHandle
                        0x08013979     0xcc  Code  Gb  localio.o [3]
gatLocalRecTimerOutHandle::__FUNCTION__
                        0x08026790     0x1c  Data  Lc  localio.o [3]
gatLocalSend            0x080136c9     0xf4  Code  Gb  localio.o [3]
gatLocalSend::__FUNCTION__
                        0x0802854c     0x10  Data  Lc  localio.o [3]
gatLocalSendStatus      0x0800f795     0xce  Code  Lc  local.o [3]
gatLocalSendStatus::__FUNCTION__
                        0x08027af4     0x14  Data  Lc  local.o [3]
gatLocalSignalCheckTick
                        0x08008405     0x5c  Code  Gb  localcomm.o [3]
gatLocalSignalCheckTick::__FUNCTION__
                        0x080274b0     0x18  Data  Lc  localcomm.o [3]
gatLocalSignalCheckTick::signal_last
                        0x20014f8e      0x1  Data  Lc  localcomm.o [3]
gatLocalSignalTickClose
                        0x08008475     0x14  Code  Gb  localcomm.o [3]
gatLocalSignalTickStart
                        0x08008461     0x14  Code  Gb  localcomm.o [3]
gatLocalStatusSync      0x0800f863     0x2c  Code  Lc  local.o [3]
gatLocalStatusSync::__FUNCTION__
                        0x08027b08     0x14  Data  Lc  local.o [3]
gatLocalioInit          0x08013249    0x110  Code  Gb  localio.o [3]
gatLocalioInit::__FUNCTION__
                        0x0802851c     0x10  Data  Lc  localio.o [3]
gatM2MCommand           0x08007a21    0x13e  Code  Gb  gatm2m.o [3]
gatM2MCommand::__FUNCTION__
                        0x080288ec     0x10  Data  Lc  gatm2m.o [3]
gatM2MHandleGatStatus   0x08007729     0x50  Code  Lc  gatm2m.o [3]
gatM2MHandleGatStatus::__FUNCTION__
                        0x080277b0     0x18  Data  Lc  gatm2m.o [3]
gatM2MHeartBeatStart    0x0800f575     0x2c  Code  Gb  mqttgat.o [3]
gatM2MHeartBeatStart::__FUNCTION__
                        0x08027510     0x18  Data  Lc  mqttgat.o [3]
gatM2MHeartBeatStop     0x0800f5a1     0x1c  Code  Gb  mqttgat.o [3]
gatM2MHeartBeatStop::__FUNCTION__
                        0x08027ec8     0x14  Data  Lc  mqttgat.o [3]
gatM2MInit              0x0800777d     0x44  Code  Gb  gatm2m.o [3]
gatM2MReInit            0x080077c1     0x48  Code  Gb  gatm2m.o [3]
gatM2MReInit::__FUNCTION__
                        0x0802887c     0x10  Data  Lc  gatm2m.o [3]
gatM2MReStartServer     0x080078e7     0x54  Code  Gb  gatm2m.o [3]
gatM2MReStartServer::__FUNCTION__
                        0x08028148     0x14  Data  Lc  gatm2m.o [3]
gatM2MReStartServerTimeOut
                        0x080078d9      0xe  Code  Lc  gatm2m.o [3]
gatM2MServerStart       0x08007821     0x56  Code  Gb  gatm2m.o [3]
gatM2MServerStop        0x08007885     0x3a  Code  Gb  gatm2m.o [3]
gatM2MServerStop::__FUNCTION__
                        0x08028134     0x14  Data  Lc  gatm2m.o [3]
gatM2MSocketConnect     0x08006ff9     0x68  Code  Gb  gatm2m.o [3]
gatM2MStopReStartServer
                        0x0800794d     0x18  Code  Gb  gatm2m.o [3]
gatMainLoop             0x080038fd      0xc  Code  Gb  gagent.o [3]
gatMqttInit             0x0800f45b     0x2a  Code  Gb  mqttgat.o [3]
gatMqttInit::__FUNCTION__
                        0x08028c30      0xc  Data  Lc  mqttgat.o [3]
gatMqttReInit           0x0800f485     0x3e  Code  Gb  mqttgat.o [3]
gatMqttReInit::__FUNCTION__
                        0x080286ac     0x10  Data  Lc  mqttgat.o [3]
gatMsgId                0x0800294d      0x8  Code  Gb  gagent.o [3]
gatMsgIdValue           0x20014f44      0x4  Data  Lc  gagent.o [3]
gatNetBackupBSSIDGet    0x0800a525      0x4  Code  Gb  iofnet.o [1]
gatNetBackupBSSIDSet    0x0800a5c7     0x20  Code  Gb  iofnet.o [1]
gatNetBackupPwdGet      0x0800a51f      0x6  Code  Gb  iofnet.o [1]
gatNetBackupPwdSet      0x0800a5a7     0x20  Code  Gb  iofnet.o [1]
gatNetBackupSSIDGet     0x0800a51b      0x4  Code  Gb  iofnet.o [1]
gatNetBackupSSIDSet     0x0800a587     0x20  Code  Gb  iofnet.o [1]
gatNetCacheBSSIDGet     0x0800a517      0x4  Code  Gb  iofnet.o [1]
gatNetCacheBSSIDSet     0x0800a567     0x20  Code  Gb  iofnet.o [1]
gatNetCachePwdGet       0x0800a511      0x6  Code  Gb  iofnet.o [1]
gatNetCachePwdSet       0x0800a547     0x20  Code  Gb  iofnet.o [1]
gatNetCacheSSIDGet      0x0800a50d      0x4  Code  Gb  iofnet.o [1]
gatNetCacheSSIDSet      0x0800a529     0x1e  Code  Gb  iofnet.o [1]
gatNetConnParaGet       0x08008b91      0x6  Code  Gb  gatnet.o [3]
gatNetEventHandle       0x08008ed9     0x36  Code  Gb  gatnet.o [3]
gatNetExcepTimeout      0x08008c83     0x1a  Code  Lc  gatnet.o [3]
gatNetExcepTimeout::__FUNCTION__
                        0x08027c34     0x14  Data  Lc  gatnet.o [3]
gatNetGetSignalLevel    0x0800a72f     0x96  Code  Gb  iofnet.o [1]
gatNetInit              0x08008f0f    0x18e  Code  Gb  gatnet.o [3]
gatNetInit::__FUNCTION__
                        0x08028b40      0xc  Data  Lc  gatnet.o [3]
gatNetMACGet            0x0800a631     0x6e  Code  Gb  iofnet.o [1]
gatNetSoftApStart       0x0800a605     0x2c  Code  Gb  iofnet.o [1]
gatNetSoftApStart::__FUNCTION__
                        0x080279a0     0x14  Data  Lc  iofnet.o [1]
gatNetStartScan         0x0800a7f3     0x4c  Code  Gb  iofnet.o [1]
gatNetStartScan::__FUNCTION__
                        0x0802830c     0x10  Data  Lc  iofnet.o [1]
gatNetStationStart      0x0800a5e7     0x1e  Code  Gb  iofnet.o [1]
gatNormalDeviceDisable  0x08001689     0xc4  Code  Gb  gserver.o [3]
gatNormalDeviceDisable::__FUNCTION__
                        0x080276a8     0x18  Data  Lc  gserver.o [3]
gatNormalDeviceDisableParse
                        0x08001761     0x76  Code  Lc  gserver.o [3]
gatNormalDeviceDisableParse::__FUNCTION__
                        0x08026c98     0x1c  Data  Lc  gserver.o [3]
gatNtpTick              0x08000189     0x10  Code  Lc  gserver.o [3]
gatNtpTimer             0x20014dbc     0x10  Data  Lc  gserver.o [3]
gatNwkEventHandle       0x0800a0eb     0xe0  Code  Gb  nwk_manage.o [3]
gatNwkEventHandle::__FUNCTION__
                        0x08027c98     0x14  Data  Lc  nwk_manage.o [3]
gatNwkInit              0x08009c0d     0x38  Code  Gb  nwk_manage.o [3]
gatNwkInit::__FUNCTION__
                        0x08028b4c      0xc  Data  Lc  nwk_manage.o [3]
gatNwkevtCbRegister     0x08009c45     0xc2  Code  Gb  nwk_manage.o [3]
gatNwkevtCbRegister::__FUNCTION__
                        0x08027c84     0x14  Data  Lc  nwk_manage.o [3]
gatOTAEventHandle       0x0800e509     0xf8  Code  Gb  otawan.o [3]
gatOTAEventHandle::__FUNCTION__
                        0x08028274     0x14  Data  Lc  otawan.o [3]
gatOtaSoftVerify        0x0800da3b     0xa0  Code  Lc  otawan.o [3]
gatOtaSoftVerify::__FUNCTION__
                        0x080281d4     0x14  Data  Lc  otawan.o [3]
gatProDefaultInfo       0x200144dc     0xc8  Data  Lc  productinfo.o [3]
gatProductConfiInfoSave
                        0x0800231d     0x40  Code  Gb  productinfo.o [3]
gatProductConfiInfoSave::__FUNCTION__
                        0x08027258     0x18  Data  Lc  productinfo.o [3]
gatProductDefaultInfoGet
                        0x08002531      0x6  Code  Gb  productinfo.o [3]
gatProductDefaultInfoInit
                        0x080024c1     0x70  Code  Gb  productinfo.o [3]
gatProductDefaultInfoSet
                        0x08002569    0x11a  Code  Gb  productinfo.o [3]
gatProductDefaultInfoSet::__FUNCTION__
                        0x08026678     0x1c  Data  Lc  productinfo.o [3]
gatProductInfo          0x200140c0    0x13c  Data  Lc  productinfo.o [3]
gatProductInfoGet       0x08002301     0x1c  Code  Gb  productinfo.o [3]
gatProductInfoInit      0x080023b7     0x60  Code  Gb  productinfo.o [3]
gatProductInfoSetGServerIp
                        0x08002417     0x3c  Code  Gb  productinfo.o [3]
gatProductInfoSetGServerIp::__FUNCTION__
                        0x0802665c     0x1c  Data  Lc  productinfo.o [3]
gatProductInfoUpdateFromEnv
                        0x08001e5d    0x1ec  Code  Gb  productinfo.o [3]
gatProductInfoUpdateFromEnv::__FUNCTION__
                        0x08026608     0x1c  Data  Lc  productinfo.o [3]
gatProvision            0x08001549    0x130  Code  Gb  gserver.o [3]
gatProvisionParse       0x08001429     0xe2  Code  Lc  gserver.o [3]
gatProvisionParse::__FUNCTION__
                        0x08027fcc     0x14  Data  Lc  gserver.o [3]
gatProvisionRecCb       0x08000b2b    0x1e6  Code  Lc  gserver.o [3]
gatProvisionRecCb::__FUNCTION__
                        0x08027f90     0x14  Data  Lc  gserver.o [3]
gatProvisionRecCb::failCont
                        0x20014f90      0x1  Data  Lc  gserver.o [3]
gatProvisionTimer       0x0800153d      0xc  Code  Lc  gserver.o [3]
gatReBoot               0x08002955     0x4a  Code  Gb  gagent.o [3]
gatReBoot::__FUNCTION__
                        0x08028a80      0xc  Data  Lc  gagent.o [3]
gatReDownloadTick       0x20014dcc     0x10  Data  Lc  otawan.o [3]
gatReDownloadTimerCb    0x0800dc69     0x78  Code  Lc  otawan.o [3]
gatReDownloadTimerCb::__FUNCTION__
                        0x080277c8     0x18  Data  Lc  otawan.o [3]
gatRebootReason         0x20014e30      0x8  Data  Lc  productinfo.o [3]
gatRecAuthKey           0x080087d7    0x24c  Code  Gb  authorization.o [3]
gatRecAuthKey::__FUNCTION__
                        0x080285ec     0x10  Data  Lc  authorization.o [3]
gatRegsiter             0x08001039    0x3d8  Code  Gb  gserver.o [3]
gatRegsiter::__FUNCTION__
                        0x08028c78      0xc  Data  Lc  gserver.o [3]
gatRegsiterParse        0x08000e05     0xe2  Code  Lc  gserver.o [3]
gatRegsiterParse::__FUNCTION__
                        0x08027fa4     0x14  Data  Lc  gserver.o [3]
gatRegsiterRecCb        0x080009f3    0x138  Code  Lc  gserver.o [3]
gatRegsiterRecCb::__FUNCTION__
                        0x08027f7c     0x14  Data  Lc  gserver.o [3]
gatRegsiterTimer        0x08000ef1     0xf6  Code  Lc  gserver.o [3]
gatRegsiterTimer::__FUNCTION__
                        0x08027fb8     0x14  Data  Lc  gserver.o [3]
gatRegsiterTimer::cnt   0x20014f91      0x1  Data  Lc  gserver.o [3]
gatReqAuthKey           0x08008697    0x140  Code  Lc  authorization.o [3]
gatReqAuthKey::__FUNCTION__
                        0x080285cc     0x10  Data  Lc  authorization.o [3]
gatReqAuthKeyTimeOut    0x0800865f     0x38  Code  Lc  authorization.o [3]
gatReqAuthKeyTimeOut::__FUNCTION__
                        0x08027420     0x18  Data  Lc  authorization.o [3]
gatReqLastVersion       0x0800e401     0xdc  Code  Lc  otawan.o [3]
gatReqLastVersion::__FUNCTION__
                        0x08028260     0x14  Data  Lc  otawan.o [3]
gatReqLastVersionCb     0x0800e191    0x270  Code  Lc  otawan.o [3]
gatReqLastVersionCb::__FUNCTION__
                        0x0802824c     0x14  Data  Lc  otawan.o [3]
gatResCloudCtrl         0x08007965     0x7c  Code  Gb  gatm2m.o [3]
gatResCloudCtrl::__FUNCTION__
                        0x0802888c     0x10  Data  Lc  gatm2m.o [3]
gatResetCurMode         0x08011b33     0x16  Code  Gb  dp.o [3]
gatRouterConnTimeout    0x08008b97     0xec  Code  Gb  gatnet.o [3]
gatRouterConnTimeout::__FUNCTION__
                        0x08027270     0x18  Data  Lc  gatnet.o [3]
gatRouterConnTimeout::failCount
                        0x20014f8c      0x1  Data  Lc  gatnet.o [3]
gatRouterUpdateInfo     0x08008c9d    0x238  Code  Lc  gatnet.o [3]
gatRouterUpdateInfo::__FUNCTION__
                        0x08027c48     0x14  Data  Lc  gatnet.o [3]
gatRunTimeData          0x20014bb4     0x18  Data  Lc  gagent.o [3]
gatRunTimeDataGet       0x0800307f      0x6  Code  Gb  gagent.o [3]
gatRunTimeDataInit      0x08003761     0x2a  Code  Gb  gagent.o [3]
gatRunTimeDataInit::__FUNCTION__
                        0x08027ba8     0x14  Data  Lc  gagent.o [3]
gatSaveRebootReason     0x080024a7     0x1a  Code  Gb  productinfo.o [3]
gatSerialRecHandle      0x080138df     0x9a  Code  Gb  localio.o [3]
gatSerialRecHandle::__FUNCTION__
                        0x08027ce8     0x14  Data  Lc  localio.o [3]
gatSerialRecThread_en   0x20014f82      0x1  Data  Lc  iofpthread.o [1]
gatSerialSendHandle     0x080137bd    0x122  Code  Gb  localio.o [3]
gatSerialSendHandle::__FUNCTION__
                        0x08027cc0     0x14  Data  Lc  localio.o [3]
gatSerialSendThread_en  0x20014f81      0x1  Data  Lc  iofpthread.o [1]
gatSetCurMode           0x08011b1d     0x16  Code  Gb  dp.o [3]
gatSetM2MDomain         0x08006f9d     0x2c  Code  Gb  gatm2m.o [3]
gatSetM2MDomain::__FUNCTION__
                        0x080287bc     0x10  Data  Lc  gatm2m.o [3]
gatSetM2MPort           0x08006fd3     0x26  Code  Gb  gatm2m.o [3]
gatSetM2MPort::__FUNCTION__
                        0x080287dc     0x10  Data  Lc  gatm2m.o [3]
gatSetNwkEvent          0x08009d07    0x3e4  Code  Gb  nwk_manage.o [3]
gatSetNwkEvent::__FUNCTION__
                        0x0802850c     0x10  Data  Lc  nwk_manage.o [3]
gatSetSoftVer           0x0800290d     0x28  Code  Gb  gagent.o [3]
gatSetSoftVer::__FUNCTION__
                        0x080283dc     0x10  Data  Lc  gagent.o [3]
gatStatusGet            0x08002fef      0x8  Code  Gb  gagent.o [3]
gatStatusSet            0x08002ff7     0x88  Code  Gb  gagent.o [3]
gatStatusSet::__FUNCTION__
                        0x0802841c     0x10  Data  Lc  gagent.o [3]
gatTaskHandle           0x08002e87    0x168  Code  Gb  gagent.o [3]
gatTaskHandle::__FUNCTION__
                        0x080283fc     0x10  Data  Lc  gagent.o [3]
gatTcpChNodeInit        0x0800cef1     0x1a  Code  Lc  tcp.o [3]
gatTcpClrChNode         0x0800d821     0x80  Code  Gb  tcp.o [3]
gatTcpDataNodeInit      0x0800d017     0x1e  Code  Lc  tcp.o [3]
gatTcpDataSendHandle    0x0800cdbd     0x1a  Code  Gb  tcp.o [3]
gatTcpDelChNode         0x0800cf0b     0x68  Code  Gb  tcp.o [3]
gatTcpDelChNode::__FUNCTION__
                        0x0802855c     0x10  Data  Lc  tcp.o [3]
gatTcpInit              0x0800cd41     0x7c  Code  Gb  tcp.o [3]
gatTcpListenAdd         0x0800cf73     0xa4  Code  Gb  tcp.o [3]
gatTcpListenAdd::__FUNCTION__
                        0x0802856c     0x10  Data  Lc  tcp.o [3]
gatTcpReadRecData       0x0800d099     0xc2  Code  Gb  tcp.o [3]
gatTcpReadRecData::__FUNCTION__
                        0x08027d24     0x14  Data  Lc  tcp.o [3]
gatTcpRecResult         0x0800d15b     0x40  Code  Lc  tcp.o [3]
gatTcpRecResult::__FUNCTION__
                        0x0802857c     0x10  Data  Lc  tcp.o [3]
gatTcpReceiveHandle     0x0800cdd7    0x11a  Code  Gb  tcp.o [3]
gatTcpReceiveHandle::__FUNCTION__
                        0x08027cfc     0x14  Data  Lc  tcp.o [3]
gatTcpReceiveHandle::flag
                        0x200005a7      0x1  Data  Lc  tcp.o [3]
gatTcpReceiveHandle::recBuf
                        0x20014f4c      0x4  Data  Lc  tcp.o [3]
gatTcpRecv              0x0800d19b    0x1d4  Code  Gb  tcp.o [3]
gatTcpRecv::__FUNCTION__
                        0x08028b58      0xc  Data  Lc  tcp.o [3]
gatTcpRecvDispatch      0x0800d3b9     0xa0  Code  Gb  tcp.o [3]
gatTcpSend              0x0800d4a5    0x106  Code  Gb  tcp.o [3]
gatTcpSend::__FUNCTION__
                        0x08028b64      0xc  Data  Lc  tcp.o [3]
gatTcpSendNodeInit      0x0800d459     0x22  Code  Lc  tcp.o [3]
gatTcpSendResult        0x0800c0bd     0x22  Code  Gb  iofsocket.o [1]
gatTcpSendTask          0x0800d5b1    0x196  Code  Gb  tcp.o [3]
gatTcpSendTask::__FUNCTION__
                        0x0802858c     0x10  Data  Lc  tcp.o [3]
gatTestModeTick         0x08009165     0x84  Code  Gb  gatnet.o [3]
gatTestModeTick::__FUNCTION__
                        0x080284ec     0x10  Data  Lc  gatnet.o [3]
gatTestModeTick::cnt    0x20014f8d      0x1  Data  Lc  gatnet.o [3]
gatTimeZoneSecSet       0x08002453     0x28  Code  Gb  productinfo.o [3]
gatTimeZoneSecSet::__FUNCTION__
                        0x08027bf8     0x14  Data  Lc  productinfo.o [3]
gatTimerAdd             0x08006297     0xda  Code  Gb  timer_subsystem.o [3]
gatTimerAdd::__FUNCTION__
                        0x08028b70      0xc  Data  Lc  timer_subsystem.o [3]
gatTimerCore            0x20014cd0     0x14  Data  Gb  timer_subsystem.o [3]
gatTimerCoreInit        0x08006265     0x32  Code  Gb  timer_subsystem.o [3]
gatTimerCoreInit::__FUNCTION__
                        0x08027d60     0x14  Data  Lc  timer_subsystem.o [3]
gatTimerDel             0x080063b9     0x64  Code  Gb  timer_subsystem.o [3]
gatTimerHandle          0x080064df     0x94  Code  Gb  timer_subsystem.o [3]
gatTimerHandle::__FUNCTION__
                        0x0802859c     0x10  Data  Lc  timer_subsystem.o [3]
gatTimerTick            0x08006435     0x6a  Code  Gb  timer_subsystem.o [3]
gatTimerTraversal       0x080065a9     0x7a  Code  Gb  timer_subsystem.o [3]
gatUpLoadDataCombine    0x080048a1    0x236  Code  Gb  gatutilcode.o [3]
gatUpLoadDataCombine::__FUNCTION__
                        0x08027408     0x18  Data  Lc  gatutilcode.o [3]
gatWaitAuthKeyTimer     0x08008621     0x3e  Code  Lc  authorization.o [3]
gatWaitAuthKeyTimer::__FUNCTION__
                        0x08027db0     0x14  Data  Lc  authorization.o [3]
gatWanOta               0x20013f24    0x19c  Data  Lc  otawan.o [3]
gatWanOtaParmGet        0x0800d995      0x6  Code  Gb  otawan.o [3]
gatWanOtaParmReset      0x0800d9df     0x5c  Code  Lc  otawan.o [3]
gatWanOtaParmReset::__FUNCTION__
                        0x080281c0     0x14  Data  Lc  otawan.o [3]
gatWanOtaStatusGet      0x0800d9bf     0x20  Code  Gb  otawan.o [3]
gatWanOtaStatusGet::__FUNCTION__
                        0x080281ac     0x14  Data  Lc  otawan.o [3]
gatWanOtaStatusSet      0x0800d99b     0x24  Code  Lc  otawan.o [3]
gatWanOtaStatusSet::__FUNCTION__
                        0x08028198     0x14  Data  Lc  otawan.o [3]
gatWiFiScanResult       0x0800a7c5      0x4  Code  Gb  iofnet.o [1]
gatm2mDnsCb             0x08006d3f     0x54  Code  Lc  gatm2m.o [3]
gatm2mDnsCb::__FUNCTION__
                        0x08028d20      0xc  Data  Lc  gatm2m.o [3]
getCurMode              0x08011b17      0x6  Code  Gb  dp.o [3]
getDevCmd               0x08011af9      0xc  Code  Lc  dp.o [3]
getDevTime_MS           0x0800a941      0x8  Code  Gb  ioftime.o [1]
getDpEntry              0x08011b49     0x6e  Code  Gb  dp.o [3]
getEnvErase             0x0800a289     0x40  Code  Gb  env.o [3]
getEnvErase::__FUNCTION__
                        0x08028d98      0xc  Data  Lc  env.o [3]
getInputString          0x080144d5     0x68  Code  Lc  iot_flash_config.o [1]
getKeyValue             0x080047b9     0x16  Code  Gb  gatutilcode.o [3]
getKeyValueCustom       0x0800474f     0x6a  Code  Gb  gatutilcode.o [3]
getLanCmd               0x080119f5     0x2c  Code  Lc  dp.o [3]
getWanCmd               0x08011a21     0xd8  Code  Lc  dp.o [3]
getWanCmd::__FUNCTION__
                        0x08028bf4      0xc  Data  Lc  dp.o [3]
getchar                 0x08017fd1      0x6  Code  Gb  getchar.o [4]
gizIssuedProcess        0x0800eaff     0xd6  Code  Gb  gagent_iot_test_basic_connectivity.o [1]
gizIssuedProcess::__FUNCTION__
                        0x08027964     0x14  Data  Lc  gagent_iot_test_basic_connectivity.o [1]
gizWiFiStatus           0x0800eacf     0x30  Code  Gb  gagent_iot_test_basic_connectivity.o [1]
gizWiFiStatus::__FUNCTION__
                        0x080282ac     0x10  Data  Lc  gagent_iot_test_basic_connectivity.o [1]
gmult                   0x080039b9     0x38  Code  Gb  aes.o [3]
gserverDnsCb            0x08000199     0x64  Code  Lc  gserver.o [3]
gserverDnsCb::__FUNCTION__
                        0x080286dc     0x10  Data  Lc  gserver.o [3]
gserverExcepTimeout     0x080017d7     0x34  Code  Lc  gserver.o [3]
gserverExcepTimeout::__FUNCTION__
                        0x08027ff4     0x14  Data  Lc  gserver.o [3]
gserverExcepTimeoutTimer
                        0x20014d9c     0x10  Data  Lc  gserver.o [3]
gserverReConnectTimer   0x20014dac     0x10  Data  Lc  gserver.o [3]
hI2cHandler             0x200149d8     0x4c  Data  Gb  stm32l475e_iot01.o [1]
halNwkStatus            0x20014f7c      0x2  Data  Lc  nwk_manage.o [3]
hexToStr                0x08004859     0x48  Code  Gb  gatutilcode.o [3]
hiwdg                   0x20014d0c     0x10  Data  Gb  main.o [1]
hrng                    0x20014dec      0xc  Data  Gb  main.o [1]
hrtc                    0x20014b34     0x24  Data  Gb  main.o [1]
hspi                    0x20014818     0x64  Data  Gb  es_wifi_io.o [1]
htim6                   0x20014a64     0x40  Data  Gb  stm32l4xx_hal_timebase_tim.o [1]
htonl                   0x0800bc95     0x28  Code  Gb  iofdev.o [1]
htons                   0x0800bce5     0x1c  Code  Gb  iofdev.o [1]
httpBody                0x08005b35    0x3b2  Code  Lc  httpgat.o [3]
httpBody::__FUNCTION__  0x08028cfc      0xc  Data  Lc  httpgat.o [3]
httpConnCb              0x080054cb    0x16c  Code  Gb  httpgat.o [3]
httpConnCb::__FUNCTION__
                        0x08028ce4      0xc  Data  Lc  httpgat.o [3]
httpDelRecNode          0x08004fd1     0x3a  Code  Gb  httpgat.o [3]
httpDelSendNode         0x08004fa1     0x30  Code  Gb  httpgat.o [3]
httpHeader              0x08005f0d    0x148  Code  Lc  httpgat.o [3]
httpParseHead           0x0800591d    0x148  Code  Lc  httpgat.o [3]
httpParseHead::__FUNCTION__
                        0x0802875c     0x10  Data  Lc  httpgat.o [3]
httpParseRescode        0x08006151     0x70  Code  Gb  httpgat.o [3]
httpParsingBlkLen       0x08005a71     0x7c  Code  Lc  httpgat.o [3]
httpPkgLenCalc          0x08004e83     0x84  Code  Lc  httpgat.o [3]
httpPkgPack             0x08004f07     0x9a  Code  Lc  httpgat.o [3]
httpRecCb               0x0800500b    0x406  Code  Gb  httpgat.o [3]
httpRecCb::__FUNCTION__
                        0x08028cd8      0xc  Data  Lc  httpgat.o [3]
httpRecCb::rOfRec       0x20014f58      0x4  Data  Lc  httpgat.o [3]
httpRecCore             0x20014cf8     0x14  Data  Gb  httpgat.o [3]
httpRecNodeInit         0x08004e11     0x72  Code  Lc  httpgat.o [3]
httpSendCb              0x08005639     0xcc  Code  Gb  httpgat.o [3]
httpSendCore            0x20014ce4     0x14  Data  Gb  httpgat.o [3]
httpSendNodeInit        0x08004da9     0x68  Code  Lc  httpgat.o [3]
httpSendResult          0x08006055     0x2c  Code  Lc  httpgat.o [3]
httpSigHandle           0x08005411     0xba  Code  Gb  httpgat.o [3]
httpSigHandle::__FUNCTION__
                        0x0802874c     0x10  Data  Lc  httpgat.o [3]
http_request            0x08027ae0     0x14  Data  Lc  timedate.o [1]
huart4                  0x2001472c     0x78  Data  Gb  main.o [1]
huart4_it_count         0x20014ef0      0x4  Data  Gb  stm32l4xx_it.o [1]
inHandlerMode           0x08011ca3     0x12  Code  Lc  cmsis_os.o [1]
init_sensors            0x08019341     0x64  Code  Gb  sensors_data.o [1]
invSboxAssign           0x080104ad    0x60a  Code  Gb  aesdata.o [3]
invSboxInit             0x08003add     0x30  Code  Gb  aes.o [3]
inv_cipher              0x080040b9     0xde  Code  Gb  aes.o [3]
inv_mix_columns         0x08003c95     0x5c  Code  Gb  aes.o [3]
inv_s_box               0x20014f64      0x4  Data  Lc  aes.o [3]
inv_shift_rows          0x08003d4d     0x5e  Code  Gb  aes.o [3]
inv_sub_bytes           0x08003e03     0x58  Code  Gb  aes.o [3]
iofAuthKeyRead          0x08008545     0x12  Code  Gb  authorization.o [3]
iofCurTime              0x0800a991      0x4  Code  Gb  ioftime.o [1]
iofFileClose            0x08013b95      0x2  Code  Gb  ioffile.o [1]
iofFileErase            0x08013ca1     0x70  Code  Gb  ioffile.o [1]
iofFileOpen             0x08013b69     0x2c  Code  Gb  ioffile.o [1]
iofFileRead             0x08013b97     0x68  Code  Gb  ioffile.o [1]
iofFileWrite            0x08013bff     0xa2  Code  Gb  ioffile.o [1]
iofFileWrite::ota_full_erase
                        0x20014f80      0x1  Data  Lc  ioffile.o [1]
iofGatGetHostByName     0x0800a877     0x54  Code  Gb  iofnet.o [1]
iofGatGetHostByName::__FUNCTION__
                        0x080279c8     0x14  Data  Lc  iofnet.o [1]
iofGetHostByName        0x0800a83f     0x38  Code  Gb  iofnet.o [1]
iofLocalTimerMSStart    0x0800aa21     0x3e  Code  Gb  ioftime.o [1]
iofLocalTimerMSStart::__FUNCTION__
                        0x08027090     0x18  Data  Lc  ioftime.o [1]
iofLocalTimerMSStop     0x0800aa5f     0x28  Code  Gb  ioftime.o [1]
iofLocalTimerMSStop::__FUNCTION__
                        0x08027a54     0x14  Data  Lc  ioftime.o [1]
iofLock                 0x08007eb1     0x16  Code  Gb  iofipc.o [1]
iofLockInit             0x08007e9d     0x14  Code  Gb  iofipc.o [1]
iofMsgCreat             0x08007ca9     0x32  Code  Gb  iofipc.o [1]
iofRecSig               0x08007d79     0x9a  Code  Gb  iofipc.o [1]
iofSemInit              0x08007e49     0x54  Code  Gb  iofipc.o [1]
iofSendSig              0x08007cdb     0x9e  Code  Gb  iofipc.o [1]
iofSerialInit           0x08017e61     0x1a  Code  Gb  iofserial.o [1]
iofSerialInit::__FUNCTION__
                        0x0802831c     0x10  Data  Lc  iofserial.o [1]
iofSerialOpen           0x08017e39     0x28  Code  Gb  iofserial.o [1]
iofSerialRead           0x08017f3d     0x20  Code  Gb  iofserial.o [1]
iofSerialSelect         0x08017e7b     0x3a  Code  Gb  iofserial.o [1]
iofSerialSend           0x08017eb5     0x88  Code  Gb  iofserial.o [1]
iofSerialSend::__FUNCTION__
                        0x0802832c     0x10  Data  Lc  iofserial.o [1]
iofStartAllThread       0x0800fd59     0x62  Code  Gb  iofpthread.o [1]
iofThreadDelay          0x0800a935      0xc  Code  Gb  ioftime.o [1]
iofThreadEnable         0x0800fdbb     0x32  Code  Gb  iofpthread.o [1]
iofTimerInit            0x0800a959     0x38  Code  Gb  ioftime.o [1]
iofToupper              0x080047cf      0xe  Code  Gb  gatutilcode.o [3]
iofUnlock               0x08007ec7     0x14  Code  Gb  iofipc.o [1]
iofWifiScan             0x0800a7c9     0x2a  Code  Gb  iofnet.o [1]
iofWifiScan::__FUNCTION__
                        0x080289fc      0xc  Data  Lc  iofnet.o [1]
isAckCmd                0x080081b3     0x8e  Code  Gb  localcomm.o [3]
isInCurMode             0x08011b05     0x12  Code  Gb  dp.o [3]
isLoginClient           0x08009b95      0x6  Code  Gb  lanvirtual.o [3]
isNeed2AckdCmd          0x08008241     0x4c  Code  Gb  localcomm.o [3]
isalpha                 0x0801ef59     0x14  Code  Gb  isalpha.o [4]
isspace                 0x080118c9     0x14  Code  Gb  isspace.o [4]
issue15                 0x20014e48      0x4  Data  Gb  es_wifi.o [1]
key_expansion           0x08003ebb    0x130  Code  Gb  aes.o [3]
lUserConfig             0x08064000    0x870  Data  Gb  iot_flash_config.o [1]
lanCmds                 0x20000258     0xc0  Data  Gb  cmdtable.o [3]
ldexp                   0x08015a19           Code  Gb  ldexp.o [5]
ldexpl                  0x08015a19           Code  Gb  ldexp.o [5]
localChanelListGet      0x08013219      0x6  Code  Gb  localio.o [3]
localChannelNodeGet     0x080131db     0x3e  Code  Gb  localio.o [3]
localChannelOpenList    0x20014aa4     0x34  Data  Lc  localio.o [3]
localExtractPacket      0x08012fd1    0x1f4  Code  Gb  localprotocol.o [3]
localFdGet              0x080131c5      0x8  Code  Gb  localio.o [3]
localInfo               0x20014e38      0x8  Data  Lc  localio.o [3]
localRecCbFunGet        0x08013225     0x24  Code  Gb  localio.o [3]
localRecDataCb          0x0801335d    0x368  Code  Gb  localio.o [3]
localRecDataCb::__FUNCTION__
                        0x0802853c     0x10  Data  Lc  localio.o [3]
localRecvList           0x20014c80     0x14  Data  Lc  localio.o [3]
localRecvListGet        0x080131d5      0x6  Code  Gb  localio.o [3]
localSemIdGet           0x080131cd      0x8  Code  Gb  localio.o [3]
localSendList           0x20014c94     0x14  Data  Lc  localio.o [3]
localSendListGet        0x0801321f      0x6  Code  Gb  localio.o [3]
localTrigSend           0x08012ce3     0x28  Code  Gb  semaph.o [1]
localTrigSend::__FUNCTION__
                        0x0802835c     0x10  Data  Lc  semaph.o [1]
localWrite              0x08012d55    0x1b4  Code  Gb  localprotocol.o [3]
localWrite::__FUNCTION__
                        0x08028c18      0xc  Data  Lc  localprotocol.o [3]
localWriteAck           0x08012f51     0x3a  Code  Gb  localprotocol.o [3]
localWriteAdapter       0x20014f54      0x4  Data  Gb  localcomm.o [3]
localWriteP0            0x08012f09     0x48  Code  Gb  localprotocol.o [3]
localeconv              0x08015503      0x4  Code  Gb  xlocale_c.o [4]
m2mInfo                 0x200141fc    0x108  Data  Lc  gatm2m.o [3]
m2mInfoGet              0x08006cd1      0x6  Code  Gb  gatm2m.o [3]
m2mInfoSet              0x08006cd7     0x68  Code  Gb  gatm2m.o [3]
m2mInfoSet::__FUNCTION__
                        0x08028d14      0xc  Data  Lc  gatm2m.o [3]
m2mSend                 0x08006d93     0x92  Code  Lc  gatm2m.o [3]
m2mSend::__FUNCTION__   0x08029118      0x8  Data  Lc  gatm2m.o [3]
m2mSktConnCb            0x08006e8d    0x106  Code  Gb  gatm2m.o [3]
m2mSktConnCb::__FUNCTION__
                        0x0802879c     0x10  Data  Lc  gatm2m.o [3]
m2mSktRecCb             0x08006e25     0x68  Code  Gb  gatm2m.o [3]
m2mSktRecCb::__FUNCTION__
                        0x08028d2c      0xc  Data  Lc  gatm2m.o [3]
main                    0x08016899     0x7c  Code  Gb  main.o [1]
makeFreeRtosPriority    0x08011c91     0x12  Code  Lc  cmsis_os.o [1]
mcuInfo                 0x200147a4     0x74  Data  Lc  localcomm.o [3]
memchr                  0x080118f1           Code  Gb  memchr.o [6]
memcmp                  0x08013b01           Code  Gb  memcmp.o [6]
mix_columns             0x08003c39     0x5c  Code  Gb  aes.o [3]
mpool_data              0x20014e98      0x4  Data  Gb  iofipc.o [1]
mpool_ptr               0x20014e94      0x4  Data  Gb  iofipc.o [1]
mqttConnBrokerInit      0x0800ee97     0x7e  Code  Gb  mqttgat.o [3]
mqttConnBrokerInit::__FUNCTION__
                        0x08027e50     0x14  Data  Lc  mqttgat.o [3]
mqttDataHandle          0x0800f4c3     0xb2  Code  Gb  mqttgat.o [3]
mqttDataHandle::__FUNCTION__
                        0x080286bc     0x10  Data  Lc  mqttgat.o [3]
mqttDoHeartBeat         0x0800ef15     0xbe  Code  Gb  mqttgat.o [3]
mqttDoHeartBeat::__FUNCTION__
                        0x0802868c     0x10  Data  Lc  mqttgat.o [3]
mqttDoHeartBeat::dCloudTime
                        0x20000598      0x4  Data  Lc  mqttgat.o [3]
mqttExtractPacket       0x0800efe9    0x382  Code  Gb  mqttgat.o [3]
mqttExtractPacket::__FUNCTION__
                        0x08027e64     0x14  Data  Lc  mqttgat.o [3]
mqttExtractPacket{5}::headPos
                        0x20014f8f      0x1  Data  Lc  mqttgat.o [3]
mqttExtractPacket{5}::tempBuf
                        0x20014e40      0x8  Data  Lc  mqttgat.o [3]
mqttNodeRecInit         0x0800ee05     0x92  Code  Lc  mqttgat.o [3]
mqttNodeRecInit::__FUNCTION__
                        0x0802867c     0x10  Data  Lc  mqttgat.o [3]
mqttPingTimeSetAlive    0x0800efd3     0x16  Code  Gb  mqttgat.o [3]
mqttRecNodeList         0x20014b08     0x2c  Data  Lc  mqttgat.o [3]
mqttSendPubData         0x0800f3cf     0x8c  Code  Gb  mqttgat.o [3]
mqttSubTopicS           0x0800f36b     0x64  Code  Gb  mqttgat.o [3]
mqtt_connect            0x0800c509    0x30a  Code  Gb  mqttlib.o [3]
mqtt_init               0x0800c455     0x74  Code  Gb  mqttlib.o [3]
mqtt_init_auth          0x0800c4c9     0x3a  Code  Gb  mqttlib.o [3]
mqtt_len_of_bytes       0x0800c2b7     0x34  Code  Gb  mqttlib.o [3]
mqtt_num_rem_len_bytes  0x0800c297     0x20  Code  Gb  mqttlib.o [3]
mqtt_num_rem_len_bytes_safe
                        0x0800c211     0x86  Code  Gb  mqttlib.o [3]
mqtt_num_rem_len_bytes_safe::__FUNCTION__
                        0x08026fa8     0x1c  Data  Lc  mqttlib.o [3]
mqtt_parse_msg_id       0x0800c319     0x6a  Code  Gb  mqttlib.o [3]
mqtt_parse_pub_msg_ptr  0x0800c3e7     0x6e  Code  Gb  mqttlib.o [3]
mqtt_parse_pub_topic_ptr
                        0x0800c383     0x42  Code  Gb  mqttlib.o [3]
mqtt_parse_publish_msg  0x0800c3c5     0x22  Code  Gb  mqttlib.o [3]
mqtt_parse_rem_len      0x0800c2eb     0x2e  Code  Gb  mqttlib.o [3]
mqtt_ping               0x0800c813     0x2c  Code  Gb  mqttlib.o [3]
mqtt_publish_with_qos   0x0800c845    0x27e  Code  Gb  mqttlib.o [3]
mqtt_publish_with_qos::__FUNCTION__
                        0x080278d0     0x18  Data  Lc  mqttlib.o [3]
mqtt_set_alive          0x0800c503      0x6  Code  Gb  mqttlib.o [3]
mqtt_subscribes         0x0800cac3    0x230  Code  Gb  mqttlib.o [3]
mqtt_subscribes::__FUNCTION__
                        0x0802896c     0x10  Data  Lc  mqttlib.o [3]
msg_rev                 0x20014ea4      0x4  Data  Gb  iofipc.o [1]
msg_send                0x20014ea0      0x4  Data  Gb  iofipc.o [1]
msg_send_lock_sem       0x20014e9c      0x4  Data  Gb  iofipc.o [1]
ndigs                   0x08004cf8     0x28  Data  Lc  iar_Stoulx.o [4]
ndigs                   0x0801e91c     0x28  Data  Lc  iar_Stoullx.o [4]
netConPara              0x20014304    0x100  Data  Gb  gatnet.o [3]
network_connect         0x08017677     0x42  Code  Gb  network.o [1]
network_credential      0x080175b3     0x3e  Code  Gb  network.o [1]
network_get_ip_address  0x080175f1     0x18  Code  Gb  network.o [1]
network_init            0x080174a9    0x10a  Code  Gb  network.o [1]
network_socket_close    0x08017735      0xc  Code  Gb  network.o [1]
network_socket_recv     0x08017609     0x6e  Code  Gb  network.o [1]
network_socket_send     0x08017701     0x34  Code  Gb  network.o [1]
newLocalSn              0x08012f8b     0x1c  Code  Lc  localprotocol.o [3]
newLocalSn::g_SN        0x200005a8      0x1  Data  Lc  localprotocol.o [3]
ntohl                   0x0800bcbd     0x28  Code  Gb  iofdev.o [1]
ntohs                   0x0800bd01     0x1c  Code  Gb  iofdev.o [1]
nwkEventCb              0x20014938     0x50  Data  Lc  nwk_manage.o [3]
nwkEventNotify          0x08009be9     0x24  Code  Lc  nwk_manage.o [3]
nwkHalStatusGet         0x08009be1      0x8  Code  Gb  nwk_manage.o [3]
nwkResetHalStatus       0x08009bd1     0x10  Code  Lc  nwk_manage.o [3]
nwkSetHalStatus         0x08009bc1     0x10  Code  Lc  nwk_manage.o [3]
obuf                    0x20014988     0x50  Data  Lc  xfiles.o [4]
onAppOnLineNumCb        0x08007335    0x100  Code  Gb  gatm2m.o [3]
onAppOnLineNumCb::__FUNCTION__
                        0x080280d0     0x14  Data  Lc  gatm2m.o [3]
onM2MHeartBeatCb        0x08007321     0x14  Code  Gb  gatm2m.o [3]
onM2MHeartBeatCb::__FUNCTION__
                        0x080280bc     0x14  Data  Lc  gatm2m.o [3]
onM2MLoginCb            0x08007069     0x86  Code  Gb  gatm2m.o [3]
onM2MLoginCb::__FUNCTION__
                        0x080287fc     0x10  Data  Lc  gatm2m.o [3]
onM2MSubTopicCb         0x080070ef     0x58  Code  Gb  gatm2m.o [3]
onM2MSubTopicCb::__FUNCTION__
                        0x0802882c     0x10  Data  Lc  gatm2m.o [3]
onM2MUserDataRecCb      0x08007147    0x1da  Code  Gb  gatm2m.o [3]
onM2MUserDataRecCb::__FUNCTION__
                        0x080280a8     0x14  Data  Lc  gatm2m.o [3]
onOTA41EventNoticCb     0x0800743d    0x2ba  Code  Gb  gatm2m.o [3]
onOTA41EventNoticCb::__FUNCTION__
                        0x080280e4     0x14  Data  Lc  gatm2m.o [3]
onOTA4EventNoticCb      0x080076f7     0x18  Code  Gb  gatm2m.o [3]
onOTA4EventNoticCb::__FUNCTION__
                        0x0802810c     0x14  Data  Lc  gatm2m.o [3]
osDelay                 0x08011ced     0x1c  Code  Gb  cmsis_os.o [1]
osKernelStart           0x08011cb5      0xa  Code  Gb  cmsis_os.o [1]
osMessageCreate         0x0801213d     0x12  Code  Gb  cmsis_os.o [1]
osMessageGet            0x080121b5     0xb4  Code  Gb  cmsis_os.o [1]
osMessagePut            0x0801214f     0x66  Code  Gb  cmsis_os.o [1]
osMutexCreate           0x08011dcf      0xc  Code  Gb  cmsis_os.o [1]
osMutexDelete           0x08011eb9     0x1a  Code  Gb  cmsis_os.o [1]
osMutexRelease          0x08011e5d     0x54  Code  Gb  cmsis_os.o [1]
osMutexWait             0x08011ddb     0x82  Code  Gb  cmsis_os.o [1]
osPoolAlloc             0x0801206b     0x82  Code  Gb  cmsis_os.o [1]
osPoolCreate            0x08011ff7     0x74  Code  Gb  cmsis_os.o [1]
osPoolFree              0x080120ed     0x50  Code  Gb  cmsis_os.o [1]
osSemaphoreCreate       0x08011ed3     0x34  Code  Gb  cmsis_os.o [1]
osSemaphoreDelete       0x08011fdd     0x1a  Code  Gb  cmsis_os.o [1]
osSemaphoreRelease      0x08011f89     0x54  Code  Gb  cmsis_os.o [1]
osSemaphoreWait         0x08011f07     0x82  Code  Gb  cmsis_os.o [1]
osSystickHandler        0x08012269     0x10  Code  Gb  cmsis_os.o [1]
osThreadCreate          0x08011cbf     0x2e  Code  Gb  cmsis_os.o [1]
osThreadIsSuspended     0x08012279     0x16  Code  Gb  cmsis_os.o [1]
osThreadResume          0x0801229d     0x32  Code  Gb  cmsis_os.o [1]
osThreadSuspend         0x0801228f      0xe  Code  Gb  cmsis_os.o [1]
osTimerCreate           0x08011d09     0x24  Code  Gb  cmsis_os.o [1]
osTimerDelete           0x08011d9f     0x30  Code  Gb  cmsis_os.o [1]
osTimerStart            0x08011d2d     0x72  Code  Gb  cmsis_os.o [1]
os_messageQ_def_gatMsgIdValue
                        0x08028e68      0x8  Data  Gb  iofipc.o [1]
os_mutex_def_es_wifi_mutex
                        0x080291c0      0x4  Data  Gb  es_wifi_io.o [1]
os_mutex_def_spi_mutex  0x080291c4      0x4  Data  Gb  es_wifi_io.o [1]
os_pool_def_mpool_data  0x080289e4      0xc  Data  Gb  iofipc.o [1]
os_pool_def_mpool_ptr   0x080289d8      0xc  Data  Gb  iofipc.o [1]
os_semaphore_def_cmddata_rdy_rising_sem
                        0x080291d0      0x4  Data  Gb  es_wifi_io.o [1]
os_semaphore_def_msg_send_lock_sem
                        0x080291e0      0x4  Data  Gb  iofipc.o [1]
os_semaphore_def_printf_lock_sem
                        0x080291f0      0x4  Data  Gb  main.o [1]
os_semaphore_def_recv_check_lock_sem
                        0x080291e8      0x4  Data  Gb  iofsocket.o [1]
os_semaphore_def_spi_rx_sem
                        0x080291c8      0x4  Data  Gb  es_wifi_io.o [1]
os_semaphore_def_spi_tx_sem
                        0x080291cc      0x4  Data  Gb  es_wifi_io.o [1]
os_semaphore_def_tcp_recv_lock_sem
                        0x080291d8      0x4  Data  Gb  gagent_iot_test_basic_connectivity.o [1]
os_semaphore_def_uart4_lock_sem
                        0x080291e4      0x4  Data  Gb  iofserial.o [1]
os_semaphore_def_wifi_lock_sem
                        0x080291d4      0x4  Data  Gb  gagent_iot_test_basic_connectivity.o [1]
os_timer_def_LocalTimer
                        0x080291ec      0x4  Data  Gb  ioftime.o [1]
pFlash                  0x20014b78     0x20  Data  Gb  stm32l4xx_hal_flash.o [1]
packRegPkt              0x08000443    0x5b0  Code  Lc  gserver.o [3]
packRegPkt::__FUNCTION__
                        0x08028c60      0xc  Data  Lc  gserver.o [3]
pcInterruptPriorityRegisters
                        0x080291f4      0x4  Data  Lc  port.o [1]
pows                    0x0801ef10     0x48  Data  Lc  strto64.o [5]
printf                  0x080027c9     0x28  Code  Gb  printf.o [4]
printf_lock_sem         0x20014ecc      0x4  Data  Gb  main.o [1]
protCmdTab              0x20000538     0x18  Data  Gb  cmdtable.o [3]
prvAddCurrentTaskToDelayedList
                        0x080117dd     0x7e  Code  Lc  tasks.o [1]
prvAddNewTaskToReadyList
                        0x08010c11     0xc2  Code  Lc  tasks.o [1]
prvCheckForValidListAndQueue
                        0x08014437     0x4c  Code  Lc  timers.o [1]
prvCheckTasksWaitingTermination
                        0x08011559     0x64  Code  Lc  tasks.o [1]
prvCopyDataFromQueue    0x08012b05     0x30  Code  Lc  queue.o [1]
prvCopyDataToQueue      0x08012a6d     0x98  Code  Lc  queue.o [1]
prvDeleteTCB            0x080115bd     0x12  Code  Lc  tasks.o [1]
prvGetNextExpireTime    0x08014231     0x2a  Code  Lc  timers.o [1]
prvHeapInit             0x080044a1     0x66  Code  Lc  heap_4.o [1]
prvIdleTask             0x080114d9     0x26  Code  Lc  tasks.o [1]
prvInitialiseMutex      0x080123f9     0x22  Code  Lc  queue.o [1]
prvInitialiseNewQueue   0x080123c3     0x36  Code  Lc  queue.o [1]
prvInitialiseNewTask    0x08010b31     0xe0  Code  Lc  tasks.o [1]
prvInitialiseNewTimer   0x08014081     0x46  Code  Lc  timers.o [1]
prvInitialiseTaskLists  0x080114ff     0x5a  Code  Lc  tasks.o [1]
prvInsertBlockIntoFreeList
                        0x08004507     0x60  Code  Lc  heap_4.o [1]
prvInsertTimerInActiveList
                        0x08014283     0x50  Code  Lc  timers.o [1]
prvIsQueueEmpty         0x08012ba3     0x1c  Code  Lc  queue.o [1]
prvIsQueueFull          0x08012bbf     0x1e  Code  Lc  queue.o [1]
prvProcessExpiredTimer  0x0801414b     0x5c  Code  Lc  timers.o [1]
prvProcessReceivedCommands
                        0x080142d3     0xde  Code  Lc  timers.o [1]
prvProcessTimerOrBlockTask
                        0x080141c3     0x6e  Code  Lc  timers.o [1]
prvResetNextTaskUnblockTime
                        0x080115cf     0x2a  Code  Lc  tasks.o [1]
prvSampleTimeNow        0x0801425b     0x28  Code  Lc  timers.o [1]
prvSampleTimeNow::xLastTime
                        0x20014f40      0x4  Data  Lc  timers.o [1]
prvSwitchTimerLists     0x080143b1     0x86  Code  Lc  timers.o [1]
prvTaskExitError        0x08017b9d     0x2a  Code  Lc  port.o [1]
prvTaskIsTaskSuspended  0x08010e71     0x3e  Code  Lc  tasks.o [1]
prvTimerTask            0x080141a9     0x1a  Code  Lc  timers.o [1]
prvUnlockQueue          0x08012b35     0x6e  Code  Lc  queue.o [1]
putchar                 0x08027931      0xc  Code  Gb  putchar.o [4]
pvPortMalloc            0x0800430d    0x11a  Code  Gb  heap_4.o [1]
pvTaskIncrementMutexHeldCount
                        0x08011795     0x1e  Code  Gb  tasks.o [1]
pvTimerGetTimerID       0x080144ad     0x28  Code  Gb  timers.o [1]
pxCurrentTCB            0x20014ef4      0x4  Data  Gb  tasks.o [1]
pxCurrentTimerList      0x20014f30      0x4  Data  Lc  timers.o [1]
pxDelayedTaskList       0x20014ef8      0x4  Data  Lc  tasks.o [1]
pxEnd                   0x20014e84      0x4  Data  Lc  heap_4.o [1]
pxOverflowDelayedTaskList
                        0x20014efc      0x4  Data  Lc  tasks.o [1]
pxOverflowTimerList     0x20014f34      0x4  Data  Lc  timers.o [1]
pxPortInitialiseStack   0x08017b75     0x28  Code  Gb  port.o [1]
pxReadyTasksLists       0x200145a4     0x8c  Data  Lc  tasks.o [1]
rand                    0x0800ac01     0x96  Code  Gb  rand.o [4]
ranmatch                0x0801d88f     0x42  Code  Lc  xscanffull.o [4]
rebootTimer             0x20014d6c     0x10  Data  Lc  localcomm.o [3]
recv_check_count        0x20014f78      0x2  Data  Gb  iofsocket.o [1]
recv_check_lock_sem     0x20014ec0      0x4  Data  Gb  iofsocket.o [1]
recv_check_thread       0x0800c0e1     0xd8  Code  Gb  iofsocket.o [1]
rot_word                0x08003e9d     0x1e  Code  Gb  aes.o [3]
routerTimer             0x20014d3c     0x10  Data  Lc  gatnet.o [3]
s_box                   0x20014f60      0x4  Data  Lc  aes.o [3]
sboxAssign              0x0800fea3    0x60a  Code  Gb  aesdata.o [3]
scalbln                 0x08015a19           Code  Gb  ldexp.o [5]
scalblnl                0x08015a19           Code  Gb  ldexp.o [5]
scalbn                  0x08015a19           Code  Gb  ldexp.o [5]
scalbnl                 0x08015a19           Code  Gb  ldexp.o [5]
scale                   0x0800b4af     0x46  Code  Lc  xprintffull.o [4]
sec_hand                0x20014f6c      0x4  Data  Lc  xfail_s.o [4]
semOp                   0x08012c85     0x40  Code  Gb  semaph.o [1]
semP                    0x08012cc5     0x10  Code  Gb  semaph.o [1]
semV                    0x08012cd5      0xe  Code  Gb  semaph.o [1]
sensor_thread           0x08019453     0x4e  Code  Gb  sensors_data.o [1]
sensor_thread::sensor_num
                        0x20014ed8      0x4  Data  Lc  sensors_data.o [1]
serial_read             0x08017e07     0x32  Code  Lc  iofserial.o [1]
serial_recv_count       0x20014eac      0x4  Data  Gb  iofpthread.o [1]
serial_send_count       0x20014ea8      0x4  Data  Gb  iofpthread.o [1]
serial_write            0x08017dd1     0x36  Code  Lc  iofserial.o [1]
setRTCTimeDateFromNetwork
                        0x08017761    0x378  Code  Gb  timedate.o [1]
setRTCTimeDateFromNetwork::__func__
                        0x080264b8     0x1c  Data  Lc  timedate.o [1]
shift_rows              0x08003cf1     0x5c  Code  Gb  aes.o [3]
simulatorLanDataUploadCB
                        0x0801d009     0x20  Code  Lc  simulatorcomm.o [3]
simulatorLanDataUploadCB::__FUNCTION__
                        0x08026950     0x1c  Data  Lc  simulatorcomm.o [3]
simulatorM2MUploadDataCb
                        0x0801cfe9     0x20  Code  Gb  simulatorcomm.o [3]
simulatorM2MUploadDataCb::__FUNCTION__
                        0x08026934     0x1c  Data  Lc  simulatorcomm.o [3]
simulatorUploadDtatCb   0x0801cfa5     0x44  Code  Lc  simulatorcomm.o [3]
simulatorUploadDtatCb::__FUNCTION__
                        0x080273d8     0x18  Data  Lc  simulatorcomm.o [3]
simulatorUploadDtatTimeOutCb
                        0x0801d029     0x4e  Code  Gb  simulatorcomm.o [3]
simulatorUploadDtatTimeOutCb::__FUNCTION__
                        0x08025cc0     0x20  Data  Lc  simulatorcomm.o [3]
sktConnHandle           0x0800d747     0x30  Code  Gb  tcp.o [3]
socket_check            0x200125ac   0x12d0  Data  Gb  iofsocket.o [1]
spi_mutex               0x20014e5c      0x4  Data  Lc  es_wifi_io.o [1]
spi_rx_event            0x20014e4c      0x4  Data  Lc  es_wifi_io.o [1]
spi_rx_sem              0x20014e60      0x4  Data  Lc  es_wifi_io.o [1]
spi_tx_event            0x20014e50      0x4  Data  Lc  es_wifi_io.o [1]
spi_tx_sem              0x20014e64      0x4  Data  Lc  es_wifi_io.o [1]
sprintf                 0x08004d21     0x40  Code  Gb  sprintf.o [4]
srand                   0x0800ac97      0xa  Code  Gb  rand.o [4]
sscanf                  0x0801cc09     0x28  Code  Gb  sscanf.o [4]
strToHex                0x080047dd     0x7c  Code  Gb  gatutilcode.o [3]
strchr                  0x08015511           Code  Gb  strchr.o [6]
strcmp                  0x080027f1           Code  Gb  strcmp.o [6]
strcpy                  0x08003909           Code  Gb  strcpy.o [6]
strcspn                 0x0801ccfb     0x22  Code  Gb  strcspn.o [4]
strlen                  0x08003979           Code  Gb  strlen.o [6]
strncmp                 0x080119cd     0x28  Code  Gb  strncmp.o [4]
strncpy                 0x08016731           Code  Gb  strncpy.o [6]
strspn                  0x0801ccd9     0x22  Code  Gb  strspn.o [4]
strstr                  0x08011899     0x30  Code  Gb  strstr.o [4]
strtok                  0x08017fdd     0x48  Code  Gb  strtok.o [4]
strtol                  0x08016823      0x4  Code  Gb  iar_Stolx.o [4]
strtoll                 0x0801e787      0x2  Code  Gb  iar_Stollx.o [4]
strtoul                 0x08004ccb      0x2  Code  Gb  iar_Stoulx.o [4]
strtoull                0x0801e8ef      0x2  Code  Gb  iar_Stoullx.o [4]
sub_bytes               0x08003dab     0x58  Code  Gb  aes.o [3]
sub_word                0x08003e5b     0x2e  Code  Gb  aes.o [3]
szTzSec                 0x20014c6c     0x14  Data  Lc  productinfo.o [3]
tcpChListNr             0x20014ca8     0x14  Data  Gb  tcp.o [3]
tcpDataNodeNr           0x20014cbc     0x14  Data  Gb  tcp.o [3]
tcpRecHandle            0x0800d36f     0x4a  Code  Gb  tcp.o [3]
tcpSemId                0x20000590      0x4  Data  Lc  tcp.o [3]
tcpSendCBHandle         0x0800d777     0x88  Code  Gb  tcp.o [3]
tcpSendListAdd          0x0800d47b     0x2a  Code  Lc  tcp.o [3]
tcpSendNr               0x20014b98     0x1c  Data  Gb  tcp.o [3]
tcpTrigSend             0x08012d0b     0x2c  Code  Gb  semaph.o [1]
tcpTrigSend::__FUNCTION__
                        0x08028a44      0xc  Data  Lc  semaph.o [1]
tcpTrigcount            0x20014f7a      0x2  Data  Gb  semaph.o [1]
tcp_recv_lock_sem       0x20014e74      0x4  Data  Gb  gagent_iot_test_basic_connectivity.o [1]
testModeTimer           0x20014d2c     0x10  Data  Lc  gatnet.o [3]
timerCb                 0x0800a925     0x10  Code  Gb  ioftime.o [1]
timerEventHandler       0x0800a9b7     0x56  Code  Gb  ioftime.o [1]
timerInsert             0x08006573     0x36  Code  Lc  timer_subsystem.o [3]
timerNodeInit           0x08006371     0x48  Code  Lc  timer_subsystem.o [3]
timerRemove             0x0800641d     0x18  Code  Lc  timer_subsystem.o [3]
timerTriggerNotifyLp    0x08006623     0x2c  Code  Lc  timer_subsystem.o [3]
timerUpdataExpire       0x0800649f     0x40  Code  Lc  timer_subsystem.o [3]
tolower                 0x080118dd     0x14  Code  Gb  tolower.o [4]
tsensor_drv             0x20014ee4      0x4  Data  Lc  stm32l475e_iot01_tsensor.o [1]
uart4_it_buf            0x2001487c     0x64  Data  Gb  iofserial.o [1]
uart4_it_tick           0x20014eb0      0x4  Data  Gb  iofserial.o [1]
uart4_lock_sem          0x20014eb4      0x4  Data  Gb  iofserial.o [1]
uart4_rx_char           0x20014f83      0x1  Data  Gb  iofserial.o [1]
uart4_rx_count          0x20014f76      0x2  Data  Gb  iofserial.o [1]
ucHeap                  0x200005ac  0x12000  Data  Lc  heap_4.o [1]
ucMaxSysCallPriority    0x20014f89      0x1  Data  Lc  port.o [1]
ulMaxPRIGROUPValue      0x20014ed0      0x4  Data  Lc  port.o [1]
updateWiFiCredentials   0x08014595     0xd2  Code  Gb  iot_flash_config.o [1]
updateWiFiCredentials::__func__
                        0x080270a8     0x18  Data  Lc  iot_flash_config.o [1]
userInit                0x0800e9c3    0x10c  Code  Gb  gagent_iot_test_basic_connectivity.o [1]
uwTick                  0x20014ee8      0x4  Data  Gb  stm32l4xx_hal.o [1]
uxCriticalNesting       0x20000574      0x4  Data  Lc  port.o [1]
uxCurrentNumberOfTasks  0x20014f04      0x4  Data  Lc  tasks.o [1]
uxDeletedTasksWaitingCleanUp
                        0x20014f00      0x4  Data  Lc  tasks.o [1]
uxListRemove            0x08017b4b     0x28  Code  Gb  list.o [1]
uxPendedTicks           0x20014f14      0x4  Data  Lc  tasks.o [1]
uxSchedulerSuspended    0x20014f2c      0x4  Data  Lc  tasks.o [1]
uxTaskNumber            0x20014f20      0x4  Data  Lc  tasks.o [1]
uxTopReadyPriority      0x20014f0c      0x4  Data  Lc  tasks.o [1]
vListInitialise         0x08017ad9     0x1e  Code  Gb  list.o [1]
vListInitialiseItem     0x08017af7      0x6  Code  Gb  list.o [1]
vListInsert             0x08017b15     0x36  Code  Gb  list.o [1]
vListInsertEnd          0x08017afd     0x18  Code  Gb  list.o [1]
vPortEnableVFP          0x0801ccbd           Code  Gb  portasm.o [1]
vPortEnterCritical      0x08017c91     0x3a  Code  Gb  port.o [1]
vPortExitCritical       0x08017ccb     0x32  Code  Gb  port.o [1]
vPortFree               0x08004427     0x7a  Code  Gb  heap_4.o [1]
vPortStartFirstTask     0x0801cca5           Code  Gb  portasm.o [1]
vPortValidateInterruptPriority
                        0x08017d25     0x4e  Code  Gb  port.o [1]
vQueueAddToRegistry     0x08012bdd     0x26  Code  Gb  queue.o [1]
vQueueDelete            0x08012a45     0x28  Code  Gb  queue.o [1]
vQueueUnregisterQueue   0x08012c03     0x2c  Code  Gb  queue.o [1]
vQueueWaitForMessageRestricted
                        0x08012c39     0x4c  Code  Gb  queue.o [1]
vTaskDelay              0x08010cd3     0x4e  Code  Gb  tasks.o [1]
vTaskMissedYield        0x080114bf      0xa  Code  Gb  tasks.o [1]
vTaskPlaceOnEventList   0x080112f9     0x34  Code  Gb  tasks.o [1]
vTaskPlaceOnEventListRestricted
                        0x08011335     0x40  Code  Gb  tasks.o [1]
vTaskPriorityInherit    0x0801161d     0xae  Code  Gb  tasks.o [1]
vTaskResume             0x08010eaf     0x8a  Code  Gb  tasks.o [1]
vTaskSetTimeOutState    0x08011411     0x26  Code  Gb  tasks.o [1]
vTaskStartScheduler     0x08010fd5     0x72  Code  Gb  tasks.o [1]
vTaskSuspend            0x08010d99     0xd8  Code  Gb  tasks.o [1]
vTaskSuspendAll         0x08011047     0x10  Code  Gb  tasks.o [1]
vTaskSwitchContext      0x0801128b     0x6e  Code  Gb  tasks.o [1]
wait_cmddata_rdy_high   0x080163fb     0x2a  Code  Lc  es_wifi_io.o [1]
wait_cmddata_rdy_rising_event
                        0x08016425     0x10  Code  Lc  es_wifi_io.o [1]
wait_spi_rx_event       0x08016435     0x10  Code  Lc  es_wifi_io.o [1]
wait_spi_tx_event       0x08016445     0x10  Code  Lc  es_wifi_io.o [1]
wanCmds                 0x20000318     0x9c  Data  Gb  cmdtable.o [3]
wctob                   0x0801e6b5     0x32  Code  Gb  wctob.o [4]
wifi_lock_sem           0x20014e70      0x4  Data  Gb  gagent_iot_test_basic_connectivity.o [1]
wt                      0x20014b58     0x20  Data  Gb  ioftime.o [1]
xActiveTimerList1       0x20014c44     0x14  Data  Lc  timers.o [1]
xActiveTimerList2       0x20014c58     0x14  Data  Lc  timers.o [1]
xBlockAllocatedBit      0x20014e90      0x4  Data  Lc  heap_4.o [1]
xDelayedTaskList1       0x20014be0     0x14  Data  Lc  tasks.o [1]
xDelayedTaskList2       0x20014bf4     0x14  Data  Lc  tasks.o [1]
xFreeBytesRemaining     0x20014e88      0x4  Data  Lc  heap_4.o [1]
xHeapStructSize         0x080291dc      0x4  Data  Lc  heap_4.o [1]
xIdleTaskHandle         0x20014f28      0x4  Data  Lc  tasks.o [1]
xMinimumEverFreeBytesRemaining
                        0x20014e8c      0x4  Data  Lc  heap_4.o [1]
xNextTaskUnblockTime    0x20014f24      0x4  Data  Lc  tasks.o [1]
xNumOfOverflows         0x20014f1c      0x4  Data  Lc  tasks.o [1]
xPendingReadyList       0x20014c08     0x14  Data  Lc  tasks.o [1]
xPortStartScheduler     0x08017bc7     0xca  Code  Gb  port.o [1]
xPortSysTickHandler     0x08017cfd     0x28  Code  Gb  port.o [1]
xQueueCreateCountingSemaphore
                        0x0801243b     0x40  Code  Gb  queue.o [1]
xQueueCreateMutex       0x0801241b     0x20  Code  Gb  queue.o [1]
xQueueGenericCreate     0x0801236d     0x56  Code  Gb  queue.o [1]
xQueueGenericReceive    0x080127c1    0x1d6  Code  Gb  queue.o [1]
xQueueGenericReset      0x080122d5     0x98  Code  Gb  queue.o [1]
xQueueGenericSend       0x0801247b    0x1a6  Code  Gb  queue.o [1]
xQueueGenericSendFromISR
                        0x08012621     0xde  Code  Gb  queue.o [1]
xQueueGiveFromISR       0x080126ff     0xc2  Code  Gb  queue.o [1]
xQueueReceiveFromISR    0x08012997     0xae  Code  Gb  queue.o [1]
xQueueRegistry          0x20014a24     0x40  Data  Gb  queue.o [1]
xSchedulerRunning       0x20014f10      0x4  Data  Lc  tasks.o [1]
xStart                  0x20014e10      0x8  Data  Lc  heap_4.o [1]
xSuspendedTaskList      0x20014c30     0x14  Data  Lc  tasks.o [1]
xTaskCheckForTimeOut    0x0801143d     0x82  Code  Gb  tasks.o [1]
xTaskCreate             0x08010ab9     0x78  Code  Gb  tasks.o [1]
xTaskGetSchedulerState  0x080115fd     0x20  Code  Gb  tasks.o [1]
xTaskGetTickCount       0x08011157      0x8  Code  Gb  tasks.o [1]
xTaskIncrementTick      0x0801115f    0x12c  Code  Gb  tasks.o [1]
xTaskPriorityDisinherit
                        0x080116cb     0xba  Code  Gb  tasks.o [1]
xTaskRemoveFromEventList
                        0x08011385     0x86  Code  Gb  tasks.o [1]
xTaskResumeAll          0x08011057    0x100  Code  Gb  tasks.o [1]
xTaskResumeFromISR      0x08010f39     0x9c  Code  Gb  tasks.o [1]
xTasksWaitingTermination
                        0x20014c1c     0x14  Data  Lc  tasks.o [1]
xTickCount              0x20014f08      0x4  Data  Lc  tasks.o [1]
xTimerCreate            0x0801404d     0x34  Code  Gb  timers.o [1]
xTimerCreateTimerTask   0x08014005     0x48  Code  Gb  timers.o [1]
xTimerGenericCommand    0x080140c7     0x84  Code  Gb  timers.o [1]
xTimerQueue             0x20014f38      0x4  Data  Lc  timers.o [1]
xTimerTaskHandle        0x20014f3c      0x4  Data  Lc  timers.o [1]
xYieldPending           0x20014f18      0x4  Data  Lc  tasks.o [1]


[1] = E:\work\work\gagent\working\ST\I-CUBE-GIZWITS\Projects\B-L475E-IOT01\Applications\Cloud\Gizwits\EWARM\B-L475E-IOT01\Obj
[2] = command line
[3] = Gagent_IAR.a
[4] = dl7M_tlf.a
[5] = m7M_tls.a
[6] = rt7M_tl.a
[7] = shb_l.a

  130 366 bytes of readonly  code memory
   41 169 bytes of readonly  data memory
   94 097 bytes of readwrite data memory

Errors: none
Warnings: none
